ARM GAS  /tmp/ccfpKWjk.s 			page 1


   1              		.cpu cortex-m7
   2              		.arch armv7e-m
   3              		.fpu fpv5-sp-d16
   4              		.eabi_attribute 27, 1	@ Tag_ABI_HardFP_use
   5              		.eabi_attribute 28, 1	@ Tag_ABI_VFP_args
   6              		.eabi_attribute 20, 1	@ Tag_ABI_FP_denormal
   7              		.eabi_attribute 21, 1	@ Tag_ABI_FP_exceptions
   8              		.eabi_attribute 23, 3	@ Tag_ABI_FP_number_model
   9              		.eabi_attribute 24, 1	@ Tag_ABI_align8_needed
  10              		.eabi_attribute 25, 1	@ Tag_ABI_align8_preserved
  11              		.eabi_attribute 26, 1	@ Tag_ABI_enum_size
  12              		.eabi_attribute 30, 2	@ Tag_ABI_optimization_goals
  13              		.eabi_attribute 34, 1	@ Tag_CPU_unaligned_access
  14              		.eabi_attribute 18, 4	@ Tag_ABI_PCS_wchar_t
  15              		.file	"draw.c"
  16              	@ GNU C17 (Fedora 12.2.0-1.fc36) version 12.2.0 (arm-none-eabi)
  17              	@	compiled by GNU C version 12.2.1 20220819 (Red Hat 12.2.1-1), GMP version 6.2.1, MPFR version 4.1
  18              	@ GGC heuristics: --param ggc-min-expand=100 --param ggc-min-heapsize=131072
  19              	@ options passed: -mthumb -mcpu=cortex-m7 -mfloat-abi=hard -mfpu=fpv5-sp-d16 -march=armv7e-m+fpv5 -
  20              		.text
  21              	.Ltext0:
  22              		.cfi_sections	.debug_frame
  23              		.file 1 "src/draw.c"
  24              		.section	.rodata.printLatLine.str1.4,"aMS",%progbits,1
  25              		.align	2
  26              	.LC0:
  27 0000 202000   		.ascii	"  \000"
  28 0003 00       		.align	2
  29              	.LC1:
  30 0004 20202000 		.ascii	"   \000"
  31              		.section	.text.printLatLine,"ax",%progbits
  32              		.align	1
  33              		.p2align 4,,15
  34              		.global	printLatLine
  35              		.syntax unified
  36              		.thumb
  37              		.thumb_func
  38              		.type	printLatLine, %function
  39              	printLatLine:
  40              	.LVL0:
  41              	.LFB12:
   1:src/draw.c    **** #include "draw.h"
   2:src/draw.c    **** 
   3:src/draw.c    **** // Drawing/IO Functions for PEBBLE
   4:src/draw.c    **** 
   5:src/draw.c    **** void printLatLine( PlaydateAPI* pd, float lat, float xlat, float temp, int x, int y )
   6:src/draw.c    **** {
  42              		.loc 1 6 1 view -0
  43              		.cfi_startproc
  44              		@ args = 0, pretend = 0, frame = 576
  45              		@ frame_needed = 0, uses_anonymous_args = 0
   7:src/draw.c    **** 	char out[144], f1[144], f2[144], f3[144];
  46              		.loc 1 7 2 view .LVU1
   8:src/draw.c    **** 	float latdeg = roundf( deg2rad( lat ) );
  47              		.loc 1 8 2 view .LVU2
  48              	@ src/draw.c:6: {
   6:src/draw.c    **** 	char out[144], f1[144], f2[144], f3[144];
ARM GAS  /tmp/ccfpKWjk.s 			page 2


  49              		.loc 1 6 1 is_stmt 0 view .LVU3
  50 0000 F0B5     		push	{r4, r5, r6, r7, lr}	@
  51              	.LCFI0:
  52              		.cfi_def_cfa_offset 20
  53              		.cfi_offset 4, -20
  54              		.cfi_offset 5, -16
  55              		.cfi_offset 6, -12
  56              		.cfi_offset 7, -8
  57              		.cfi_offset 14, -4
  58 0002 2DED048B 		vpush.64	{d8, d9}	@
  59              	.LCFI1:
  60              		.cfi_def_cfa_offset 36
  61              		.cfi_offset 80, -36
  62              		.cfi_offset 81, -32
  63              		.cfi_offset 82, -28
  64              		.cfi_offset 83, -24
  65 0006 B0EE609A 		vmov.f32	s18, s1	@ xlat, tmp193
  66 000a ADF5137D 		sub	sp, sp, #588	@,,
  67              	.LCFI2:
  68              		.cfi_def_cfa_offset 624
  69              	@ src/draw.c:6: {
   6:src/draw.c    **** 	char out[144], f1[144], f2[144], f3[144];
  70              		.loc 1 6 1 view .LVU4
  71 000e F0EE418A 		vmov.f32	s17, s2	@ temp, tmp194
  72 0012 0D46     		mov	r5, r1	@ x, tmp195
  73 0014 1646     		mov	r6, r2	@ y, tmp196
  74 0016 0746     		mov	r7, r0	@ pd, tmp192
  75              	@ src/draw.c:8: 	float latdeg = roundf( deg2rad( lat ) );
  76              		.loc 1 8 17 view .LVU5
  77 0018 FFF7FEFF 		bl	deg2rad		@
  78              	.LVL1:
  79              	@ src/draw.c:10: 	float_to_string( latdeg, f1 );
   9:src/draw.c    **** 
  10:src/draw.c    **** 	float_to_string( latdeg, f1 );
  80              		.loc 1 10 2 view .LVU6
  81 001c 26A8     		add	r0, sp, #152	@ tmp202,,
  82              	@ src/draw.c:8: 	float latdeg = roundf( deg2rad( lat ) );
   8:src/draw.c    **** 
  83              		.loc 1 8 17 view .LVU7
  84 001e B8FE408A 		vrinta.f32	s16, s0	@ latdeg, tmp197
  85              	.LVL2:
  86              		.loc 1 10 2 is_stmt 1 view .LVU8
  87 0022 B0EE480A 		vmov.f32	s0, s16	@, latdeg
  88 0026 FFF7FEFF 		bl	float_to_string		@
  89              	.LVL3:
  11:src/draw.c    **** 	float_to_string( xlat, f2 );
  90              		.loc 1 11 2 view .LVU9
  91 002a B0EE490A 		vmov.f32	s0, s18	@, xlat
  92 002e 4AA8     		add	r0, sp, #296	@,,
  93 0030 FFF7FEFF 		bl	float_to_string		@
  94              	.LVL4:
  12:src/draw.c    **** 	float_to_string( temp, f3 );
  95              		.loc 1 12 2 view .LVU10
  96 0034 B0EE680A 		vmov.f32	s0, s17	@, temp
  97 0038 6EA8     		add	r0, sp, #440	@ tmp203,,
  98 003a FFF7FEFF 		bl	float_to_string		@
  99              	.LVL5:
ARM GAS  /tmp/ccfpKWjk.s 			page 3


  13:src/draw.c    **** 
  14:src/draw.c    **** 	if ( latdeg > 0 ) {
 100              		.loc 1 14 2 view .LVU11
 101              	@ src/draw.c:14: 	if ( latdeg > 0 ) {
 102              		.loc 1 14 5 is_stmt 0 view .LVU12
 103 003e B5EEC08A 		vcmpe.f32	s16, #0	@ latdeg
 104              	@ src/draw.c:15: 		if ( fabsf( latdeg ) < 10 ) {
  15:src/draw.c    **** 		if ( fabsf( latdeg ) < 10 ) {
 105              		.loc 1 15 6 view .LVU13
 106 0042 F2EE047A 		vmov.f32	s15, #1.0e+1	@ tmp144,
 107              	@ src/draw.c:15: 		if ( fabsf( latdeg ) < 10 ) {
 108              		.loc 1 15 8 view .LVU14
 109 0046 B0EEC88A 		vabs.f32	s16, s16	@ tmp143, latdeg
 110              	.LVL6:
 111              	@ src/draw.c:14: 	if ( latdeg > 0 ) {
  14:src/draw.c    **** 		if ( fabsf( latdeg ) < 10 ) {
 112              		.loc 1 14 5 view .LVU15
 113 004a F1EE10FA 		vmrs	APSR_nzcv, FPSCR
 114              	@ src/draw.c:15: 		if ( fabsf( latdeg ) < 10 ) {
 115              		.loc 1 15 6 view .LVU16
 116 004e B4EEE78A 		vcmpe.f32	s16, s15	@ tmp143, tmp144
 117              	@ src/draw.c:14: 	if ( latdeg > 0 ) {
  14:src/draw.c    **** 		if ( fabsf( latdeg ) < 10 ) {
 118              		.loc 1 14 5 view .LVU17
 119 0052 2DDD     		ble	.L9		@,
 120              		.loc 1 15 3 is_stmt 1 view .LVU18
 121              	@ src/draw.c:15: 		if ( fabsf( latdeg ) < 10 ) {
 122              		.loc 1 15 6 is_stmt 0 view .LVU19
 123 0054 F1EE10FA 		vmrs	APSR_nzcv, FPSCR
 124 0058 22D4     		bmi	.L12		@,
 125              	.L4:
  16:src/draw.c    **** 			strcpy( out, "  " );
  17:src/draw.c    **** 		}
  18:src/draw.c    **** 		else {
  19:src/draw.c    **** 			strcpy( out, " " );
 126              		.loc 1 19 4 is_stmt 1 view .LVU20
 127 005a 02AC     		add	r4, sp, #8	@ tmp189,,
 128 005c 2023     		movs	r3, #32	@ tmp155,
 129 005e 2380     		strh	r3, [r4]	@ movhi	@ tmp155, MEM <char[1:2]> [(void *)&out]
 130              	.L6:
  20:src/draw.c    **** 		}
  21:src/draw.c    **** 	}
  22:src/draw.c    **** 	else {
  23:src/draw.c    **** 		if ( fabsf( latdeg ) < 10 ) {
  24:src/draw.c    **** 			strcpy( out, " " );
  25:src/draw.c    **** 		}
  26:src/draw.c    **** 		else {
  27:src/draw.c    **** 			strcpy( out, "" );
  28:src/draw.c    **** 		}
  29:src/draw.c    **** 	}
  30:src/draw.c    **** 
  31:src/draw.c    **** 	strcat( out, f1 );
 131              		.loc 1 31 2 view .LVU21
 132 0060 2046     		mov	r0, r4	@, tmp189
 133 0062 FFF7FEFF 		bl	strlen		@
 134              	.LVL7:
 135 0066 26A9     		add	r1, sp, #152	@ tmp204,,
ARM GAS  /tmp/ccfpKWjk.s 			page 4


 136 0068 2044     		add	r0, r0, r4	@, tmp189
 137 006a FFF7FEFF 		bl	stpcpy		@
 138              	.LVL8:
 139              	@ src/draw.c:32: 	strcat( out, "   " );
  32:src/draw.c    **** 	strcat( out, "   " );
 140              		.loc 1 32 2 is_stmt 0 view .LVU22
 141 006e 144B     		ldr	r3, .L13	@ tmp170,
 142              	@ src/draw.c:31: 	strcat( out, f1 );
  31:src/draw.c    **** 	strcat( out, "   " );
 143              		.loc 1 31 2 view .LVU23
 144 0070 8446     		mov	ip, r0	@ tmp168, tmp199
 145              		.loc 1 32 2 is_stmt 1 view .LVU24
 146              	@ src/draw.c:35: 	strcat( out, f3 );
  33:src/draw.c    **** 	//strcat( out, f2 );
  34:src/draw.c    **** 	strcat( out, "   " );
  35:src/draw.c    **** 	strcat( out, f3 );
 147              		.loc 1 35 2 is_stmt 0 view .LVU25
 148 0072 6EA9     		add	r1, sp, #440	@ tmp205,,
 149              	@ src/draw.c:32: 	strcat( out, "   " );
  32:src/draw.c    **** 	//strcat( out, f2 );
 150              		.loc 1 32 2 view .LVU26
 151 0074 1868     		ldr	r0, [r3]	@, MEM <char[1:4]> [(void *)"   "]
 152 0076 CCF80000 		str	r0, [ip]	@ unaligned	@, MEM <char[1:4]> [(void *)_38]
  34:src/draw.c    **** 	strcat( out, f3 );
 153              		.loc 1 34 2 is_stmt 1 view .LVU27
 154 007a CCF80300 		str	r0, [ip, #3]	@ unaligned	@, MEM <char[1:4]> [(void *)_26]
 155              		.loc 1 35 2 view .LVU28
 156 007e 0CF10600 		add	r0, ip, #6	@, tmp168,
 157 0082 FFF7FEFF 		bl	stpcpy		@
 158              	.LVL9:
  36:src/draw.c    **** 
  37:src/draw.c    **** 	pd->graphics->drawText( out, strlen( out ), kASCIIEncoding, x, y );
 159              		.loc 1 37 2 view .LVU29
 160              	@ src/draw.c:37: 	pd->graphics->drawText( out, strlen( out ), kASCIIEncoding, x, y );
 161              		.loc 1 37 14 is_stmt 0 view .LVU30
 162 0086 B968     		ldr	r1, [r7, #8]	@ pd_29(D)->graphics, pd_29(D)->graphics
 163              	@ src/draw.c:37: 	pd->graphics->drawText( out, strlen( out ), kASCIIEncoding, x, y );
 164              		.loc 1 37 2 view .LVU31
 165 0088 2B46     		mov	r3, r5	@, x
 166 008a 0096     		str	r6, [sp]	@ y,
 167 008c 0022     		movs	r2, #0	@,
 168 008e 8D6D     		ldr	r5, [r1, #88]	@ _4->drawText, _4->drawText
 169              	.LVL10:
 170              		.loc 1 37 2 view .LVU32
 171 0090 011B     		subs	r1, r0, r4	@, tmp200, tmp189
 172 0092 2046     		mov	r0, r4	@, tmp189
 173 0094 A847     		blx	r5		@ _4->drawText
 174              	.LVL11:
  38:src/draw.c    **** 	return;
 175              		.loc 1 38 2 is_stmt 1 view .LVU33
 176              	@ src/draw.c:39: }
  39:src/draw.c    **** }
 177              		.loc 1 39 1 is_stmt 0 view .LVU34
 178 0096 0DF5137D 		add	sp, sp, #588	@,,
 179              	.LCFI3:
 180              		.cfi_remember_state
 181              		.cfi_def_cfa_offset 36
ARM GAS  /tmp/ccfpKWjk.s 			page 5


 182              		@ sp needed	@
 183 009a BDEC048B 		vldm	sp!, {d8-d9}	@,
 184              	.LCFI4:
 185              		.cfi_restore 82
 186              		.cfi_restore 83
 187              		.cfi_restore 80
 188              		.cfi_restore 81
 189              		.cfi_def_cfa_offset 20
 190              	.LVL12:
 191              		.loc 1 39 1 view .LVU35
 192 009e F0BD     		pop	{r4, r5, r6, r7, pc}	@
 193              	.LVL13:
 194              	.L12:
 195              	.LCFI5:
 196              		.cfi_restore_state
  16:src/draw.c    **** 		}
 197              		.loc 1 16 4 is_stmt 1 view .LVU36
 198 00a0 084B     		ldr	r3, .L13+4	@ tmp146,
 199 00a2 02AC     		add	r4, sp, #8	@ tmp189,,
 200 00a4 1B68     		ldr	r3, [r3]	@ MEM <char[1:3]> [(void *)"  "], MEM <char[1:3]> [(void *)"  "]
 201 00a6 2380     		strh	r3, [r4]	@ movhi	@ MEM <char[1:3]> [(void *)"  "], MEM <char[1:3]> [(void *)&out]
 202 00a8 1B0C     		lsrs	r3, r3, #16	@ tmp151, MEM <char[1:3]> [(void *)"  "],
 203 00aa 8DF80A30 		strb	r3, [sp, #10]	@ tmp151, MEM <char[1:3]> [(void *)&out]
 204 00ae D7E7     		b	.L6		@
 205              	.L9:
  23:src/draw.c    **** 			strcpy( out, " " );
 206              		.loc 1 23 3 view .LVU37
 207              	@ src/draw.c:23: 		if ( fabsf( latdeg ) < 10 ) {
  23:src/draw.c    **** 			strcpy( out, " " );
 208              		.loc 1 23 6 is_stmt 0 view .LVU38
 209 00b0 F1EE10FA 		vmrs	APSR_nzcv, FPSCR
 210 00b4 D1D4     		bmi	.L4		@,
  27:src/draw.c    **** 		}
 211              		.loc 1 27 4 is_stmt 1 view .LVU39
 212 00b6 0023     		movs	r3, #0	@ tmp161,
 213 00b8 02AC     		add	r4, sp, #8	@ tmp189,,
 214 00ba 8DF80830 		strb	r3, [sp, #8]	@ tmp161, MEM[(char * {ref-all})&out]
 215 00be CFE7     		b	.L6		@
 216              	.L14:
 217              		.align	2
 218              	.L13:
 219 00c0 04000000 		.word	.LC1
 220 00c4 00000000 		.word	.LC0
 221              		.cfi_endproc
 222              	.LFE12:
 223              		.size	printLatLine, .-printLatLine
 224              		.section	.text.printAllLatLines,"ax",%progbits
 225              		.align	1
 226              		.p2align 4,,15
 227              		.global	printAllLatLines
 228              		.syntax unified
 229              		.thumb
 230              		.thumb_func
 231              		.type	printAllLatLines, %function
 232              	printAllLatLines:
 233              	.LVL14:
 234              	.LFB13:
ARM GAS  /tmp/ccfpKWjk.s 			page 6


  40:src/draw.c    **** 
  41:src/draw.c    **** void printAllLatLines( PlaydateAPI* pd, float lat[], float xlat[], float temp[], int size, int x, i
  42:src/draw.c    **** {
 235              		.loc 1 42 1 view -0
 236              		.cfi_startproc
 237              		@ args = 12, pretend = 0, frame = 0
 238              		@ frame_needed = 0, uses_anonymous_args = 0
  43:src/draw.c    **** 	int i;
 239              		.loc 1 43 2 view .LVU41
  44:src/draw.c    **** 	int xtop = 50;
 240              		.loc 1 44 2 view .LVU42
  45:src/draw.c    **** 	int ytop = 200;
 241              		.loc 1 45 2 view .LVU43
  46:src/draw.c    **** 	int dy = 12;
 242              		.loc 1 46 2 view .LVU44
  47:src/draw.c    **** 	for ( i = size - 1; i >= 0; i-- ) {
 243              		.loc 1 47 2 view .LVU45
 244              	@ src/draw.c:42: {
  42:src/draw.c    **** 	int i;
 245              		.loc 1 42 1 is_stmt 0 view .LVU46
 246 0000 2DE9F843 		push	{r3, r4, r5, r6, r7, r8, r9, lr}	@
 247              	.LCFI6:
 248              		.cfi_def_cfa_offset 32
 249              		.cfi_offset 3, -32
 250              		.cfi_offset 4, -28
 251              		.cfi_offset 5, -24
 252              		.cfi_offset 6, -20
 253              		.cfi_offset 7, -16
 254              		.cfi_offset 8, -12
 255              		.cfi_offset 9, -8
 256              		.cfi_offset 14, -4
 257              	@ src/draw.c:42: {
  42:src/draw.c    **** 	int i;
 258              		.loc 1 42 1 view .LVU47
 259 0004 089E     		ldr	r6, [sp, #32]	@ size, size
 260              	.LVL15:
 261              		.loc 1 47 24 is_stmt 1 view .LVU48
 262 0006 751E     		subs	r5, r6, #1	@ i, size,
 263              	.LVL16:
 264              		.loc 1 47 24 is_stmt 0 view .LVU49
 265 0008 18D4     		bmi	.L15		@,
 266 000a A5EB8504 		sub	r4, r5, r5, lsl #2	@ tmp138, i, i,
 267 000e 0746     		mov	r7, r0	@ pd, tmp144
 268 0010 01EB8609 		add	r9, r1, r6, lsl #2	@ ivtmp.16, lat, size,
 269 0014 9846     		mov	r8, r3	@ temp, tmp147
 270 0016 A400     		lsls	r4, r4, #2	@ tmp139, tmp138,
 271 0018 02EB8606 		add	r6, r2, r6, lsl #2	@ ivtmp.19, xlat, size,
 272 001c C834     		adds	r4, r4, #200	@ ivtmp.20, tmp139,
 273              	.LVL17:
 274              	.L17:
  48:src/draw.c    **** 		printLatLine( pd, lat[i], xlat[i], temp[0], xtop, ytop - i*dy );
 275              		.loc 1 48 3 is_stmt 1 discriminator 3 view .LVU50
 276              	@ src/draw.c:47: 	for ( i = size - 1; i >= 0; i-- ) {
  47:src/draw.c    **** 	for ( i = size - 1; i >= 0; i-- ) {
 277              		.loc 1 47 31 is_stmt 0 discriminator 3 view .LVU51
 278 001e 013D     		subs	r5, r5, #1	@ i, i,
 279              	.LVL18:
ARM GAS  /tmp/ccfpKWjk.s 			page 7


 280              	@ src/draw.c:48: 		printLatLine( pd, lat[i], xlat[i], temp[0], xtop, ytop - i*dy );
 281              		.loc 1 48 3 discriminator 3 view .LVU52
 282 0020 2246     		mov	r2, r4	@, ivtmp.20
 283 0022 3221     		movs	r1, #50	@,
 284 0024 98ED001A 		vldr.32	s2, [r8]	@, *temp_17(D)
 285 0028 76ED010A 		vldmdb.32	r6!, {s1}	@ ivtmp.19,
 286 002c 3846     		mov	r0, r7	@, pd
 287 002e 39ED010A 		vldmdb.32	r9!, {s0}	@ ivtmp.16,
 288              	@ src/draw.c:47: 	for ( i = size - 1; i >= 0; i-- ) {
  47:src/draw.c    **** 	for ( i = size - 1; i >= 0; i-- ) {
 289              		.loc 1 47 24 discriminator 3 view .LVU53
 290 0032 0C34     		adds	r4, r4, #12	@ ivtmp.20, ivtmp.20,
 291              	@ src/draw.c:48: 		printLatLine( pd, lat[i], xlat[i], temp[0], xtop, ytop - i*dy );
 292              		.loc 1 48 3 discriminator 3 view .LVU54
 293 0034 FFF7FEFF 		bl	printLatLine		@
 294              	.LVL19:
  47:src/draw.c    **** 	for ( i = size - 1; i >= 0; i-- ) {
 295              		.loc 1 47 31 is_stmt 1 discriminator 3 view .LVU55
  47:src/draw.c    **** 	for ( i = size - 1; i >= 0; i-- ) {
 296              		.loc 1 47 24 discriminator 3 view .LVU56
 297 0038 6B1C     		adds	r3, r5, #1	@, i,
 298 003a F0D1     		bne	.L17		@,
 299              	.LVL20:
 300              	.L15:
 301              	@ src/draw.c:51: }
  49:src/draw.c    **** 	}
  50:src/draw.c    **** 	return;
  51:src/draw.c    **** }
 302              		.loc 1 51 1 is_stmt 0 view .LVU57
 303 003c BDE8F883 		pop	{r3, r4, r5, r6, r7, r8, r9, pc}	@
 304              		.loc 1 51 1 view .LVU58
 305              		.cfi_endproc
 306              	.LFE13:
 307              		.size	printAllLatLines, .-printAllLatLines
 308              		.text
 309              	.Letext0:
 310              		.file 2 "/usr/arm-none-eabi/include/machine/_default_types.h"
 311              		.file 3 "/usr/arm-none-eabi/include/sys/_stdint.h"
 312              		.file 4 "/usr/lib/gcc/arm-none-eabi/12.2.0/include/stddef.h"
 313              		.file 5 "/opt/PlaydateSDK/C_API/pd_api/pd_api_gfx.h"
 314              		.file 6 "/opt/PlaydateSDK/C_API/pd_api/pd_api_sys.h"
 315              		.file 7 "/opt/PlaydateSDK/C_API/pd_api/pd_api_lua.h"
 316              		.file 8 "/opt/PlaydateSDK/C_API/pd_api/pd_api_json.h"
 317              		.file 9 "/opt/PlaydateSDK/C_API/pd_api/pd_api_file.h"
 318              		.file 10 "/opt/PlaydateSDK/C_API/pd_api/pd_api_sprite.h"
 319              		.file 11 "/opt/PlaydateSDK/C_API/pd_api/pd_api_sound.h"
 320              		.file 12 "/opt/PlaydateSDK/C_API/pd_api/pd_api_display.h"
 321              		.file 13 "/opt/PlaydateSDK/C_API/pd_api/pd_api_scoreboards.h"
 322              		.file 14 "/opt/PlaydateSDK/C_API/pd_api.h"
 323              		.file 15 "/usr/arm-none-eabi/include/string.h"
 324              		.file 16 "/usr/arm-none-eabi/include/math.h"
 325              		.file 17 "src/util.h"
 326              		.file 18 "<built-in>"