ARM GAS  /tmp/ccmEEoE6.s 			page 1


   1              		.cpu cortex-m7
   2              		.arch armv7e-m
   3              		.fpu fpv5-sp-d16
   4              		.eabi_attribute 27, 1	@ Tag_ABI_HardFP_use
   5              		.eabi_attribute 28, 1	@ Tag_ABI_VFP_args
   6              		.eabi_attribute 20, 1	@ Tag_ABI_FP_denormal
   7              		.eabi_attribute 21, 1	@ Tag_ABI_FP_exceptions
   8              		.eabi_attribute 23, 3	@ Tag_ABI_FP_number_model
   9              		.eabi_attribute 24, 1	@ Tag_ABI_align8_needed
  10              		.eabi_attribute 25, 1	@ Tag_ABI_align8_preserved
  11              		.eabi_attribute 26, 1	@ Tag_ABI_enum_size
  12              		.eabi_attribute 30, 2	@ Tag_ABI_optimization_goals
  13              		.eabi_attribute 34, 1	@ Tag_CPU_unaligned_access
  14              		.eabi_attribute 18, 4	@ Tag_ABI_PCS_wchar_t
  15              		.file	"model.c"
  16              	@ GNU C17 (Fedora 12.2.0-1.fc36) version 12.2.0 (arm-none-eabi)
  17              	@	compiled by GNU C version 12.2.1 20220819 (Red Hat 12.2.1-1), GMP version 6.2.1, MPFR version 4.1
  18              	@ GGC heuristics: --param ggc-min-expand=100 --param ggc-min-heapsize=131072
  19              	@ options passed: -mthumb -mcpu=cortex-m7 -mfloat-abi=hard -mfpu=fpv5-sp-d16 -march=armv7e-m+fpv5 -
  20              		.text
  21              	.Ltext0:
  22              		.cfi_sections	.debug_frame
  23              		.file 1 "src/model.c"
  24              		.section	.text.getInfrared,"ax",%progbits
  25              		.align	1
  26              		.p2align 4,,15
  27              		.global	getInfrared
  28              		.syntax unified
  29              		.thumb
  30              		.thumb_func
  31              		.type	getInfrared, %function
  32              	getInfrared:
  33              	.LVL0:
  34              	.LFB0:
   1:src/model.c   **** #include "model.h"
   2:src/model.c   **** 
   3:src/model.c   **** #define TFREEZE 0.0	// degC
   4:src/model.c   **** 
   5:src/model.c   **** float getInfrared( float temp )
   6:src/model.c   **** {
  35              		.loc 1 6 1 view -0
  36              		.cfi_startproc
  37              		@ args = 0, pretend = 0, frame = 0
  38              		@ frame_needed = 0, uses_anonymous_args = 0
  39              		@ link register save eliminated.
   7:src/model.c   **** 	float irad;
  40              		.loc 1 7 2 view .LVU1
   8:src/model.c   **** 	float Arad = 203.0;	// W m^-2
  41              		.loc 1 8 2 view .LVU2
   9:src/model.c   **** 	float Brad = 2.0;	// W m^-2 degC^-1
  42              		.loc 1 9 2 view .LVU3
  10:src/model.c   **** 
  11:src/model.c   **** 	irad = Arad + Brad * temp;
  43              		.loc 1 11 2 view .LVU4
  44              	@ src/model.c:11: 	irad = Arad + Brad * temp;
  45              		.loc 1 11 7 is_stmt 0 view .LVU5
  46 0000 B0EE007A 		vmov.f32	s14, #2.0e+0	@ tmp115,
ARM GAS  /tmp/ccmEEoE6.s 			page 2


  47 0004 DFED037A 		vldr.32	s15, .L3	@ tmp116,
  48              	.LVL1:
  12:src/model.c   **** 	return irad;
  49              		.loc 1 12 2 is_stmt 1 view .LVU6
  50              	@ src/model.c:13: }
  13:src/model.c   **** }
  51              		.loc 1 13 1 is_stmt 0 view .LVU7
  52 0008 E0EE077A 		vfma.f32	s15, s0, s14	@ tmp116, tmp118, tmp115
  53              	.LVL2:
  54              		.loc 1 13 1 view .LVU8
  55 000c B0EE670A 		vmov.f32	s0, s15	@, tmp116
  56              	.LVL3:
  57              		.loc 1 13 1 view .LVU9
  58 0010 7047     		bx	lr	@
  59              	.L4:
  60 0012 00BF     		.align	2
  61              	.L3:
  62 0014 00004B43 		.word	1128988672
  63              		.cfi_endproc
  64              	.LFE0:
  65              		.size	getInfrared, .-getInfrared
  66              		.section	.text.getAlbedo,"ax",%progbits
  67              		.align	1
  68              		.p2align 4,,15
  69              		.global	getAlbedo
  70              		.syntax unified
  71              		.thumb
  72              		.thumb_func
  73              		.type	getAlbedo, %function
  74              	getAlbedo:
  75              	.LVL4:
  76              	.LFB1:
  14:src/model.c   **** 
  15:src/model.c   **** float getAlbedo( float temp )
  16:src/model.c   **** {
  77              		.loc 1 16 1 is_stmt 1 view -0
  78              		.cfi_startproc
  79              		@ args = 0, pretend = 0, frame = 0
  80              		@ frame_needed = 0, uses_anonymous_args = 0
  81              		@ link register save eliminated.
  17:src/model.c   **** 	float albedo;
  82              		.loc 1 17 2 view .LVU11
  18:src/model.c   **** 	float aland = 0.3;
  83              		.loc 1 18 2 view .LVU12
  19:src/model.c   **** 	float aice = 0.7;
  84              		.loc 1 19 2 view .LVU13
  20:src/model.c   **** 
  21:src/model.c   **** 	if ( temp > TFREEZE ) {
  85              		.loc 1 21 2 view .LVU14
  86              	@ src/model.c:24: 		albedo = aice;
  22:src/model.c   **** 		albedo = aland;
  23:src/model.c   **** 	} else {
  24:src/model.c   **** 		albedo = aice;
  87              		.loc 1 24 10 is_stmt 0 view .LVU15
  88 0000 B5EEC00A 		vcmpe.f32	s0, #0	@ tmp123
  89 0004 9FED047A 		vldr.32	s14, .L10	@ tmp121,
  90 0008 DFED047A 		vldr.32	s15, .L10+4	@ tmp122,
ARM GAS  /tmp/ccmEEoE6.s 			page 3


  91 000c F1EE10FA 		vmrs	APSR_nzcv, FPSCR
  92              	@ src/model.c:27: }
  25:src/model.c   **** 	}
  26:src/model.c   **** 	return albedo;
  27:src/model.c   **** }
  93              		.loc 1 27 1 view .LVU16
  94 0010 37FE270A 		vselgt.f32	s0, s14, s15	@,, tmp121, tmp122
  95              	.LVL5:
  96              		.loc 1 27 1 view .LVU17
  97 0014 7047     		bx	lr	@
  98              	.L11:
  99 0016 00BF     		.align	2
 100              	.L10:
 101 0018 9A99993E 		.word	1050253722
 102 001c 3333333F 		.word	1060320051
 103              		.cfi_endproc
 104              	.LFE1:
 105              		.size	getAlbedo, .-getAlbedo
 106              		.section	.text.nextStep,"ax",%progbits
 107              		.align	1
 108              		.p2align 4,,15
 109              		.global	nextStep
 110              		.syntax unified
 111              		.thumb
 112              		.thumb_func
 113              		.type	nextStep, %function
 114              	nextStep:
 115              	.LVL6:
 116              	.LFB2:
  28:src/model.c   **** 
  29:src/model.c   **** float nextStep( float temp, float dt )
  30:src/model.c   **** {
 117              		.loc 1 30 1 is_stmt 1 view -0
 118              		.cfi_startproc
 119              		@ args = 0, pretend = 0, frame = 0
 120              		@ frame_needed = 0, uses_anonymous_args = 0
 121              		@ link register save eliminated.
  31:src/model.c   **** 	float solcon = 340;	// W m^-2
 122              		.loc 1 31 2 view .LVU19
  32:src/model.c   **** 	float cp = 2.1e8;	// J m^-2 degC^-1
 123              		.loc 1 32 2 view .LVU20
  33:src/model.c   **** 	float ir, alb, dtemp, dum;
 124              		.loc 1 33 2 view .LVU21
  34:src/model.c   **** 
  35:src/model.c   **** 	ir = getInfrared( temp );
 125              		.loc 1 35 2 view .LVU22
 126              	@ src/model.c:40: 	dum = dt / cp;
  36:src/model.c   **** 	alb = getAlbedo( temp );
  37:src/model.c   **** 	//dtemp = ( ( 1 - alb ) * solcon - ir ) / cp;
  38:src/model.c   **** 	//dtemp = log( ( 1 - alb ) * solcon - ir ) - log( cp );
  39:src/model.c   **** 
  40:src/model.c   **** 	dum = dt / cp;
 127              		.loc 1 40 6 is_stmt 0 view .LVU23
 128 0000 DFED0C7A 		vldr.32	s15, .L17	@ tmp126,
 129              	.LBB6:
 130              	.LBB7:
 131              	@ src/model.c:11: 	irad = Arad + Brad * temp;
ARM GAS  /tmp/ccmEEoE6.s 			page 4


  11:src/model.c   **** 	return irad;
 132              		.loc 1 11 7 view .LVU24
 133 0004 F0EE005A 		vmov.f32	s11, #2.0e+0	@ tmp120,
 134 0008 9FED0B7A 		vldr.32	s14, .L17+4	@ tmp121,
 135              	.LVL7:
  11:src/model.c   **** 	return irad;
 136              		.loc 1 11 7 view .LVU25
 137              	.LBE7:
 138              	.LBI6:
   5:src/model.c   **** {
 139              		.loc 1 5 7 is_stmt 1 view .LVU26
 140              	.LBB8:
   7:src/model.c   **** 	float Arad = 203.0;	// W m^-2
 141              		.loc 1 7 2 view .LVU27
   8:src/model.c   **** 	float Brad = 2.0;	// W m^-2 degC^-1
 142              		.loc 1 8 2 view .LVU28
   9:src/model.c   **** 
 143              		.loc 1 9 2 view .LVU29
  11:src/model.c   **** 	return irad;
 144              		.loc 1 11 2 view .LVU30
 145              	.LBE8:
 146              	.LBE6:
 147              	.LBB10:
 148              	.LBB11:
 149 000c B5EEC00A 		vcmpe.f32	s0, #0	@ temp
 150              	.LBE11:
 151              	.LBE10:
 152              	@ src/model.c:40: 	dum = dt / cp;
 153              		.loc 1 40 6 is_stmt 0 view .LVU31
 154 0010 C0EEA76A 		vdiv.f32	s13, s1, s15	@ dum, tmp134, tmp126
 155              	.LBB14:
 156              	.LBB12:
 157 0014 9FED096A 		vldr.32	s12, .L17+8	@ tmp132,
 158 0018 DFED097A 		vldr.32	s15, .L17+12	@ tmp131,
 159              	.LBE12:
 160              	.LBE14:
 161              	.LBB15:
 162              	.LBB9:
 163              	@ src/model.c:11: 	irad = Arad + Brad * temp;
  11:src/model.c   **** 	return irad;
 164              		.loc 1 11 7 view .LVU32
 165 001c A0EE257A 		vfma.f32	s14, s0, s11	@ irad, temp, tmp120
 166              	.LVL8:
  12:src/model.c   **** }
 167              		.loc 1 12 2 is_stmt 1 view .LVU33
  12:src/model.c   **** }
 168              		.loc 1 12 2 is_stmt 0 view .LVU34
 169              	.LBE9:
 170              	.LBE15:
  36:src/model.c   **** 	//dtemp = ( ( 1 - alb ) * solcon - ir ) / cp;
 171              		.loc 1 36 2 is_stmt 1 view .LVU35
 172              	.LBB16:
 173              	.LBI10:
  15:src/model.c   **** {
 174              		.loc 1 15 7 view .LVU36
 175              	.LBB13:
  17:src/model.c   **** 	float aland = 0.3;
ARM GAS  /tmp/ccmEEoE6.s 			page 5


 176              		.loc 1 17 2 view .LVU37
  18:src/model.c   **** 	float aice = 0.7;
 177              		.loc 1 18 2 view .LVU38
  19:src/model.c   **** 
 178              		.loc 1 19 2 view .LVU39
  21:src/model.c   **** 		albedo = aland;
 179              		.loc 1 21 2 view .LVU40
 180 0020 F1EE10FA 		vmrs	APSR_nzcv, FPSCR
 181 0024 77FE867A 		vselgt.f32	s15, s15, s12	@, prephitmp_15, tmp131, tmp132
  26:src/model.c   **** }
 182              		.loc 1 26 2 view .LVU41
 183              	.LVL9:
  26:src/model.c   **** }
 184              		.loc 1 26 2 is_stmt 0 view .LVU42
 185              	.LBE13:
 186              	.LBE16:
 187              		.loc 1 40 2 is_stmt 1 view .LVU43
  41:src/model.c   **** 	dtemp = ( ( 1 - alb ) * solcon - ir ) * dum;
 188              		.loc 1 41 2 view .LVU44
  42:src/model.c   **** 
  43:src/model.c   **** 	return dtemp;
 189              		.loc 1 43 2 view .LVU45
 190              	@ src/model.c:41: 	dtemp = ( ( 1 - alb ) * solcon - ir ) * dum;
  41:src/model.c   **** 	dtemp = ( ( 1 - alb ) * solcon - ir ) * dum;
 191              		.loc 1 41 33 is_stmt 0 view .LVU46
 192 0028 77EEC77A 		vsub.f32	s15, s15, s14	@ tmp124, prephitmp_15, irad
 193              	.LVL10:
 194              	@ src/model.c:44: }
  44:src/model.c   **** }
 195              		.loc 1 44 1 view .LVU47
 196 002c 27EEA60A 		vmul.f32	s0, s15, s13	@, tmp124, dum
 197              	.LVL11:
 198              		.loc 1 44 1 view .LVU48
 199 0030 7047     		bx	lr	@
 200              	.L18:
 201 0032 00BF     		.align	2
 202              	.L17:
 203 0034 8845484D 		.word	1296582024
 204 0038 00004B43 		.word	1128988672
 205 003c 0100CC42 		.word	1120665601
 206 0040 00006E43 		.word	1131282432
 207              		.cfi_endproc
 208              	.LFE2:
 209              		.size	nextStep, .-nextStep
 210              		.text
 211              	.Letext0: