ARM GAS  /tmp/ccmEEoE6.s 			page 1


   1              		.cpu cortex-m7
   2              		.arch armv7e-m
   3              		.fpu fpv5-sp-d16
   4              		.eabi_attribute 27, 1	@ Tag_ABI_HardFP_use
   5              		.eabi_attribute 28, 1	@ Tag_ABI_VFP_args
   6              		.eabi_attribute 20, 1	@ Tag_ABI_FP_denormal
   7              		.eabi_attribute 21, 1	@ Tag_ABI_FP_exceptions
   8              		.eabi_attribute 23, 3	@ Tag_ABI_FP_number_model
   9              		.eabi_attribute 24, 1	@ Tag_ABI_align8_needed
  10              		.eabi_attribute 25, 1	@ Tag_ABI_align8_preserved
  11              		.eabi_attribute 26, 1	@ Tag_ABI_enum_size
  12              		.eabi_attribute 30, 2	@ Tag_ABI_optimization_goals
  13              		.eabi_attribute 34, 1	@ Tag_CPU_unaligned_access
  14              		.eabi_attribute 18, 4	@ Tag_ABI_PCS_wchar_t
  15              		.file	"model.c"
  16              	@ GNU C17 (Fedora 12.2.0-1.fc36) version 12.2.0 (arm-none-eabi)
  17              	@	compiled by GNU C version 12.2.1 20220819 (Red Hat 12.2.1-1), GMP version 6.2.1, MPFR version 4.1
  18              	@ GGC heuristics: --param ggc-min-expand=100 --param ggc-min-heapsize=131072
  19              	@ options passed: -mthumb -mcpu=cortex-m7 -mfloat-abi=hard -mfpu=fpv5-sp-d16 -march=armv7e-m+fpv5 -
  20              		.text
  21              	.Ltext0:
  22              		.cfi_sections	.debug_frame
  23              		.file 1 "src/model.c"
  24              		.section	.text.getInfrared,"ax",%progbits
  25              		.align	1
  26              		.p2align 4,,15
  27              		.global	getInfrared
  28              		.syntax unified
  29              		.thumb
  30              		.thumb_func
  31              		.type	getInfrared, %function
  32              	getInfrared:
  33              	.LVL0:
  34              	.LFB0:
   1:src/model.c   **** #include "model.h"
   2:src/model.c   **** 
   3:src/model.c   **** #define TFREEZE 0.0	// degC
   4:src/model.c   **** 
   5:src/model.c   **** float getInfrared( float temp )
   6:src/model.c   **** {
  35              		.loc 1 6 1 view -0
  36              		.cfi_startproc
  37              		@ args = 0, pretend = 0, frame = 0
  38              		@ frame_needed = 0, uses_anonymous_args = 0
  39              		@ link register save eliminated.
   7:src/model.c   **** 	float irad;
  40              		.loc 1 7 2 view .LVU1
   8:src/model.c   **** 	float Arad = 203.0;	// W m^-2
  41              		.loc 1 8 2 view .LVU2
   9:src/model.c   **** 	float Brad = 2.0;	// W m^-2 degC^-1
  42              		.loc 1 9 2 view .LVU3
  10:src/model.c   **** 
  11:src/model.c   **** 	irad = Arad + Brad * temp;
  43              		.loc 1 11 2 view .LVU4
  44              	@ src/model.c:11: 	irad = Arad + Brad * temp;
  45              		.loc 1 11 7 is_stmt 0 view .LVU5
  46 0000 B0EE007A 		vmov.f32	s14, #2.0e+0	@ tmp115,
ARM GAS  /tmp/ccmEEoE6.s 			page 2


  47 0004 DFED037A 		vldr.32	s15, .L3	@ tmp116,
  48              	.LVL1:
  12:src/model.c   **** 	return irad;
  49              		.loc 1 12 2 is_stmt 1 view .LVU6
  50              	@ src/model.c:13: }
  13:src/model.c   **** }
  51              		.loc 1 13 1 is_stmt 0 view .LVU7
  52 0008 E0EE077A 		vfma.f32	s15, s0, s14	@ tmp116, tmp118, tmp115
  53              	.LVL2:
  54              		.loc 1 13 1 view .LVU8
  55 000c B0EE670A 		vmov.f32	s0, s15	@, tmp116
  56              	.LVL3:
  57              		.loc 1 13 1 view .LVU9
  58 0010 7047     		bx	lr	@
  59              	.L4:
  60 0012 00BF     		.align	2
  61              	.L3:
  62 0014 00004B43 		.word	1128988672
  63              		.cfi_endproc
  64              	.LFE0:
  65              		.size	getInfrared, .-getInfrared
  66              		.section	.text.getAlbedo,"ax",%progbits
  67              		.align	1
  68              		.p2align 4,,15
  69              		.global	getAlbedo
  70              		.syntax unified
  71              		.thumb
  72              		.thumb_func
  73              		.type	getAlbedo, %function
  74              	getAlbedo:
  75              	.LVL4:
  76              	.LFB1:
  14:src/model.c   **** 
  15:src/model.c   **** float getAlbedo( float temp )
  16:src/model.c   **** {
  77              		.loc 1 16 1 is_stmt 1 view -0
  78              		.cfi_startproc
  79              		@ args = 0, pretend = 0, frame = 0
  80              		@ frame_needed = 0, uses_anonymous_args = 0
  81              		@ link register save eliminated.
  17:src/model.c   **** 	float albedo;
  82              		.loc 1 17 2 view .LVU11
  18:src/model.c   **** 	float aland = 0.3;
  83              		.loc 1 18 2 view .LVU12
  19:src/model.c   **** 	float aice = 0.7;
  84              		.loc 1 19 2 view .LVU13
  20:src/model.c   **** 
  21:src/model.c   **** 	if ( temp > TFREEZE ) {
  85              		.loc 1 21 2 view .LVU14
  86              	@ src/model.c:24: 		albedo = aice;
  22:src/model.c   **** 		albedo = aland;
  23:src/model.c   **** 	} else {
  24:src/model.c   **** 		albedo = aice;
  87              		.loc 1 24 10 is_stmt 0 view .LVU15
  88 0000 B5EEC00A 		vcmpe.f32	s0, #0	@ tmp123
  89 0004 9FED047A 		vldr.32	s14, .L10	@ tmp121,
  90 0008 DFED047A 		vldr.32	s15, .L10+4	@ tmp122,
ARM GAS  /tmp/ccmEEoE6.s 			page 3


  91 000c F1EE10FA 		vmrs	APSR_nzcv, FPSCR
  92              	@ src/model.c:27: }
  25:src/model.c   **** 	}
  26:src/model.c   **** 	return albedo;
  27:src/model.c   **** }
  93              		.loc 1 27 1 view .LVU16
  94 0010 37FE270A 		vselgt.f32	s0, s14, s15	@,, tmp121, tmp122
  95              	.LVL5:
  96              		.loc 1 27 1 view .LVU17
  97 0014 7047     		bx	lr	@
  98              	.L11:
  99 0016 00BF     		.align	2
 100              	.L10:
 101 0018 9A99993E 		.word	1050253722
 102 001c 3333333F 		.word	1060320051
 103              		.cfi_endproc
 104              	.LFE1:
 105              		.size	getAlbedo, .-getAlbedo
 106              		.section	.text.nextStep,"ax",%progbits
 107              		.align	1
 108              		.p2align 4,,15
 109              		.global	nextStep
 110              		.syntax unified
 111              		.thumb
 112              		.thumb_func
 113              		.type	nextStep, %function
 114              	nextStep:
 115              	.LVL6:
 116              	.LFB2:
  28:src/model.c   **** 
  29:src/model.c   **** float nextStep( float temp, float dt )
  30:src/model.c   **** {
 117              		.loc 1 30 1 is_stmt 1 view -0
 118              		.cfi_startproc
 119              		@ args = 0, pretend = 0, frame = 0
 120              		@ frame_needed = 0, uses_anonymous_args = 0
 121              		@ link register save eliminated.
  31:src/model.c   **** 	float solcon = 340;	// W m^-2
 122              		.loc 1 31 2 view .LVU19
  32:src/model.c   **** 	float cp = 2.1e8;	// J m^-2 degC^-1
 123              		.loc 1 32 2 view .LVU20
  33:src/model.c   **** 	float ir, alb, dtemp, dum;
 124              		.loc 1 33 2 view .LVU21
  34:src/model.c   **** 
  35:src/model.c   **** 	ir = getInfrared( temp );
 125              		.loc 1 35 2 view .LVU22
 126              	@ src/model.c:40: 	dum = dt / cp;
  36:src/model.c   **** 	alb = getAlbedo( temp );
  37:src/model.c   **** 	//dtemp = ( ( 1 - alb ) * solcon - ir ) / cp;
  38:src/model.c   **** 	//dtemp = log( ( 1 - alb ) * solcon - ir ) - log( cp );
  39:src/model.c   **** 
  40:src/model.c   **** 	dum = dt / cp;
 127              		.loc 1 40 6 is_stmt 0 view .LVU23
 128 0000 DFED0C7A 		vldr.32	s15, .L17	@ tmp126,
 129              	.LBB6:
 130              	.LBB7:
 131              	@ src/model.c:11: 	irad = Arad + Brad * temp;
ARM GAS  /tmp/ccmEEoE6.s 			page 4


  11:src/model.c   **** 	return irad;
 132              		.loc 1 11 7 view .LVU24
 133 0004 F0EE005A 		vmov.f32	s11, #2.0e+0	@ tmp120,
 134 0008 9FED0B7A 		vldr.32	s14, .L17+4	@ tmp121,
 135              	.LVL7:
  11:src/model.c   **** 	return irad;
 136              		.loc 1 11 7 view .LVU25
 137              	.LBE7:
 138              	.LBI6:
   5:src/model.c   **** {
 139              		.loc 1 5 7 is_stmt 1 view .LVU26
 140              	.LBB8:
   7:src/model.c   **** 	float Arad = 203.0;	// W m^-2
 141              		.loc 1 7 2 view .LVU27
   8:src/model.c   **** 	float Brad = 2.0;	// W m^-2 degC^-1
 142              		.loc 1 8 2 view .LVU28
   9:src/model.c   **** 
 143              		.loc 1 9 2 view .LVU29
  11:src/model.c   **** 	return irad;
 144              		.loc 1 11 2 view .LVU30
 145              	.LBE8:
 146              	.LBE6:
 147              	.LBB10:
 148              	.LBB11:
 149 000c B5EEC00A 		vcmpe.f32	s0, #0	@ temp
 150              	.LBE11:
 151              	.LBE10:
 152              	@ src/model.c:40: 	dum = dt / cp;
 153              		.loc 1 40 6 is_stmt 0 view .LVU31
 154 0010 C0EEA76A 		vdiv.f32	s13, s1, s15	@ dum, tmp134, tmp126
 155              	.LBB14:
 156              	.LBB12:
 157 0014 9FED096A 		vldr.32	s12, .L17+8	@ tmp132,
 158 0018 DFED097A 		vldr.32	s15, .L17+12	@ tmp131,
 159              	.LBE12:
 160              	.LBE14:
 161              	.LBB15:
 162              	.LBB9:
 163              	@ src/model.c:11: 	irad = Arad + Brad * temp;
  11:src/model.c   **** 	return irad;
 164              		.loc 1 11 7 view .LVU32
 165 001c A0EE257A 		vfma.f32	s14, s0, s11	@ irad, temp, tmp120
 166              	.LVL8:
  12:src/model.c   **** }
 167              		.loc 1 12 2 is_stmt 1 view .LVU33
  12:src/model.c   **** }
 168              		.loc 1 12 2 is_stmt 0 view .LVU34
 169              	.LBE9:
 170              	.LBE15:
  36:src/model.c   **** 	//dtemp = ( ( 1 - alb ) * solcon - ir ) / cp;
 171              		.loc 1 36 2 is_stmt 1 view .LVU35
 172              	.LBB16:
 173              	.LBI10:
  15:src/model.c   **** {
 174              		.loc 1 15 7 view .LVU36
 175              	.LBB13:
  17:src/model.c   **** 	float aland = 0.3;
ARM GAS  /tmp/ccmEEoE6.s 			page 5


 176              		.loc 1 17 2 view .LVU37
  18:src/model.c   **** 	float aice = 0.7;
 177              		.loc 1 18 2 view .LVU38
  19:src/model.c   **** 
 178              		.loc 1 19 2 view .LVU39
  21:src/model.c   **** 		albedo = aland;
 179              		.loc 1 21 2 view .LVU40
 180 0020 F1EE10FA 		vmrs	APSR_nzcv, FPSCR
 181 0024 77FE867A 		vselgt.f32	s15, s15, s12	@, prephitmp_15, tmp131, tmp132
  26:src/model.c   **** }
 182              		.loc 1 26 2 view .LVU41
 183              	.LVL9:
  26:src/model.c   **** }
 184              		.loc 1 26 2 is_stmt 0 view .LVU42
 185              	.LBE13:
 186              	.LBE16:
 187              		.loc 1 40 2 is_stmt 1 view .LVU43
  41:src/model.c   **** 	dtemp = ( ( 1 - alb ) * solcon - ir ) * dum;
 188              		.loc 1 41 2 view .LVU44
  42:src/model.c   **** 
  43:src/model.c   **** 	return dtemp;
 189              		.loc 1 43 2 view .LVU45
 190              	@ src/model.c:41: 	dtemp = ( ( 1 - alb ) * solcon - ir ) * dum;
  41:src/model.c   **** 	dtemp = ( ( 1 - alb ) * solcon - ir ) * dum;
 191              		.loc 1 41 33 is_stmt 0 view .LVU46
 192 0028 77EEC77A 		vsub.f32	s15, s15, s14	@ tmp124, prephitmp_15, irad
 193              	.LVL10:
 194              	@ src/model.c:44: }
  44:src/model.c   **** }
 195              		.loc 1 44 1 view .LVU47
 196 002c 27EEA60A 		vmul.f32	s0, s15, s13	@, tmp124, dum
 197              	.LVL11:
 198              		.loc 1 44 1 view .LVU48
 199 0030 7047     		bx	lr	@
 200              	.L18:
 201 0032 00BF     		.align	2
 202              	.L17:
 203 0034 8845484D 		.word	1296582024
 204 0038 00004B43 		.word	1128988672
 205 003c 0100CC42 		.word	1120665601
 206 0040 00006E43 		.word	1131282432
 207              		.cfi_endproc
 208              	.LFE2:
 209              		.size	nextStep, .-nextStep
 210              		.text
 211              	.Letext0:
 212              		.section	.debug_info,"",%progbits
 213              	.Ldebug_info0:
 214 0000 BD020000 		.4byte	0x2bd
 215 0004 0200     		.2byte	0x2
 216 0006 00000000 		.4byte	.Ldebug_abbrev0
 217 000a 04       		.byte	0x4
 218 000b 01       		.uleb128 0x1
 219 000c CE000000 		.4byte	.LASF24
 220 0010 0C       		.byte	0xc
 221 0011 84000000 		.4byte	.LASF25
 222 0015 00000000 		.4byte	.LASF26
ARM GAS  /tmp/ccmEEoE6.s 			page 6


 223 0019 58000000 		.4byte	.Ldebug_ranges0+0x58
 224 001d 00000000 		.4byte	0
 225 0021 00000000 		.4byte	0
 226 0025 00000000 		.4byte	.Ldebug_line0
 227 0029 02       		.uleb128 0x2
 228 002a 04       		.byte	0x4
 229 002b 04       		.byte	0x4
 230 002c 34000000 		.4byte	.LASF0
 231 0030 03       		.uleb128 0x3
 232 0031 04       		.byte	0x4
 233 0032 05       		.byte	0x5
 234 0033 696E7400 		.ascii	"int\000"
 235 0037 02       		.uleb128 0x2
 236 0038 04       		.byte	0x4
 237 0039 07       		.byte	0x7
 238 003a 9C000000 		.4byte	.LASF1
 239 003e 02       		.uleb128 0x2
 240 003f 08       		.byte	0x8
 241 0040 05       		.byte	0x5
 242 0041 A8010000 		.4byte	.LASF2
 243 0045 02       		.uleb128 0x2
 244 0046 08       		.byte	0x8
 245 0047 04       		.byte	0x4
 246 0048 D3010000 		.4byte	.LASF3
 247 004c 02       		.uleb128 0x2
 248 004d 01       		.byte	0x1
 249 004e 06       		.byte	0x6
 250 004f DF010000 		.4byte	.LASF4
 251 0053 02       		.uleb128 0x2
 252 0054 01       		.byte	0x1
 253 0055 08       		.byte	0x8
 254 0056 3A000000 		.4byte	.LASF5
 255 005a 02       		.uleb128 0x2
 256 005b 02       		.byte	0x2
 257 005c 05       		.byte	0x5
 258 005d C0010000 		.4byte	.LASF6
 259 0061 02       		.uleb128 0x2
 260 0062 02       		.byte	0x2
 261 0063 07       		.byte	0x7
 262 0064 65000000 		.4byte	.LASF7
 263 0068 02       		.uleb128 0x2
 264 0069 04       		.byte	0x4
 265 006a 05       		.byte	0x5
 266 006b CA010000 		.4byte	.LASF8
 267 006f 02       		.uleb128 0x2
 268 0070 04       		.byte	0x4
 269 0071 07       		.byte	0x7
 270 0072 4E000000 		.4byte	.LASF9
 271 0076 02       		.uleb128 0x2
 272 0077 08       		.byte	0x8
 273 0078 07       		.byte	0x7
 274 0079 A9000000 		.4byte	.LASF10
 275 007d 02       		.uleb128 0x2
 276 007e 01       		.byte	0x1
 277 007f 08       		.byte	0x8
 278 0080 BB010000 		.4byte	.LASF11
 279 0084 02       		.uleb128 0x2
ARM GAS  /tmp/ccmEEoE6.s 			page 7


 280 0085 08       		.byte	0x8
 281 0086 04       		.byte	0x4
 282 0087 78000000 		.4byte	.LASF12
 283 008b 04       		.uleb128 0x4
 284 008c 01       		.byte	0x1
 285 008d 26000000 		.4byte	.LASF27
 286 0091 01       		.byte	0x1
 287 0092 1D       		.byte	0x1d
 288 0093 07       		.byte	0x7
 289 0094 01       		.byte	0x1
 290 0095 29000000 		.4byte	0x29
 291 0099 00000000 		.4byte	.LFB2
 292 009d 44000000 		.4byte	.LFE2
 293 00a1 02       		.byte	0x2
 294 00a2 7D       		.byte	0x7d
 295 00a3 00       		.sleb128 0
 296 00a4 01       		.byte	0x1
 297 00a5 BC010000 		.4byte	0x1bc
 298 00a9 05       		.uleb128 0x5
 299 00aa 60000000 		.4byte	.LASF20
 300 00ae 01       		.byte	0x1
 301 00af 1D       		.byte	0x1d
 302 00b0 17       		.byte	0x17
 303 00b1 29000000 		.4byte	0x29
 304 00b5 04000000 		.4byte	.LLST3
 305 00b9 00000000 		.4byte	.LVUS3
 306 00bd 06       		.uleb128 0x6
 307 00be 647400   		.ascii	"dt\000"
 308 00c1 01       		.byte	0x1
 309 00c2 1D       		.byte	0x1d
 310 00c3 23       		.byte	0x23
 311 00c4 29000000 		.4byte	0x29
 312 00c8 02       		.byte	0x2
 313 00c9 90       		.byte	0x90
 314 00ca 41       		.uleb128 0x41
 315 00cb 07       		.uleb128 0x7
 316 00cc C0000000 		.4byte	.LASF13
 317 00d0 01       		.byte	0x1
 318 00d1 1F       		.byte	0x1f
 319 00d2 08       		.byte	0x8
 320 00d3 29000000 		.4byte	0x29
 321 00d7 04       		.byte	0x4
 322 00d8 0000AA43 		.4byte	0x43aa0000
 323 00dc 08       		.uleb128 0x8
 324 00dd 637000   		.ascii	"cp\000"
 325 00e0 01       		.byte	0x1
 326 00e1 20       		.byte	0x20
 327 00e2 08       		.byte	0x8
 328 00e3 29000000 		.4byte	0x29
 329 00e7 04       		.byte	0x4
 330 00e8 8845484D 		.4byte	0x4d484588
 331 00ec 09       		.uleb128 0x9
 332 00ed 697200   		.ascii	"ir\000"
 333 00f0 01       		.byte	0x1
 334 00f1 21       		.byte	0x21
 335 00f2 08       		.byte	0x8
 336 00f3 29000000 		.4byte	0x29
ARM GAS  /tmp/ccmEEoE6.s 			page 8


 337 00f7 2A000000 		.4byte	.LLST4
 338 00fb 28000000 		.4byte	.LVUS4
 339 00ff 0A       		.uleb128 0xa
 340 0100 616C6200 		.ascii	"alb\000"
 341 0104 01       		.byte	0x1
 342 0105 21       		.byte	0x21
 343 0106 0C       		.byte	0xc
 344 0107 29000000 		.4byte	0x29
 345 010b 0B       		.uleb128 0xb
 346 010c 48000000 		.4byte	.LASF14
 347 0110 01       		.byte	0x1
 348 0111 21       		.byte	0x21
 349 0112 11       		.byte	0x11
 350 0113 29000000 		.4byte	0x29
 351 0117 40000000 		.4byte	.LLST5
 352 011b 3E000000 		.4byte	.LVUS5
 353 011f 09       		.uleb128 0x9
 354 0120 64756D00 		.ascii	"dum\000"
 355 0124 01       		.byte	0x1
 356 0125 21       		.byte	0x21
 357 0126 18       		.byte	0x18
 358 0127 29000000 		.4byte	0x29
 359 012b 68000000 		.4byte	.LLST6
 360 012f 66000000 		.4byte	.LVUS6
 361 0133 0C       		.uleb128 0xc
 362 0134 00020000 		.4byte	0x200
 363 0138 0C000000 		.4byte	.LBI6
 364 013c 01       		.byte	.LVU26
 365 013d 00000000 		.4byte	.Ldebug_ranges0+0
 366 0141 01       		.byte	0x1
 367 0142 23       		.byte	0x23
 368 0143 07       		.byte	0x7
 369 0144 7D010000 		.4byte	0x17d
 370 0148 0D       		.uleb128 0xd
 371 0149 13020000 		.4byte	0x213
 372 014d 88000000 		.4byte	.LLST7
 373 0151 86000000 		.4byte	.LVUS7
 374 0155 0E       		.uleb128 0xe
 375 0156 18000000 		.4byte	.Ldebug_ranges0+0x18
 376 015a 0F       		.uleb128 0xf
 377 015b 1F020000 		.4byte	0x21f
 378 015f 9E000000 		.4byte	.LLST8
 379 0163 9C000000 		.4byte	.LVUS8
 380 0167 10       		.uleb128 0x10
 381 0168 2B020000 		.4byte	0x22b
 382 016c 04       		.byte	0x4
 383 016d 00004B43 		.4byte	0x434b0000
 384 0171 10       		.uleb128 0x10
 385 0172 37020000 		.4byte	0x237
 386 0176 04       		.byte	0x4
 387 0177 00000040 		.4byte	0x40000000
 388 017b 00       		.byte	0
 389 017c 00       		.byte	0
 390 017d 11       		.uleb128 0x11
 391 017e BC010000 		.4byte	0x1bc
 392 0182 20000000 		.4byte	.LBI10
 393 0186 03       		.byte	.LVU36
ARM GAS  /tmp/ccmEEoE6.s 			page 9


 394 0187 38000000 		.4byte	.Ldebug_ranges0+0x38
 395 018b 01       		.byte	0x1
 396 018c 24       		.byte	0x24
 397 018d 08       		.byte	0x8
 398 018e 0D       		.uleb128 0xd
 399 018f CF010000 		.4byte	0x1cf
 400 0193 B4000000 		.4byte	.LLST9
 401 0197 B2000000 		.4byte	.LVUS9
 402 019b 0E       		.uleb128 0xe
 403 019c 38000000 		.4byte	.Ldebug_ranges0+0x38
 404 01a0 12       		.uleb128 0x12
 405 01a1 DB010000 		.4byte	0x1db
 406 01a5 10       		.uleb128 0x10
 407 01a6 E7010000 		.4byte	0x1e7
 408 01aa 04       		.byte	0x4
 409 01ab 9A99993E 		.4byte	0x3e99999a
 410 01af 10       		.uleb128 0x10
 411 01b0 F3010000 		.4byte	0x1f3
 412 01b4 04       		.byte	0x4
 413 01b5 3333333F 		.4byte	0x3f333333
 414 01b9 00       		.byte	0
 415 01ba 00       		.byte	0
 416 01bb 00       		.byte	0
 417 01bc 13       		.uleb128 0x13
 418 01bd 01       		.byte	0x1
 419 01be 1C000000 		.4byte	.LASF18
 420 01c2 01       		.byte	0x1
 421 01c3 0F       		.byte	0xf
 422 01c4 07       		.byte	0x7
 423 01c5 01       		.byte	0x1
 424 01c6 29000000 		.4byte	0x29
 425 01ca 01       		.byte	0x1
 426 01cb 00020000 		.4byte	0x200
 427 01cf 14       		.uleb128 0x14
 428 01d0 60000000 		.4byte	.LASF20
 429 01d4 01       		.byte	0x1
 430 01d5 0F       		.byte	0xf
 431 01d6 18       		.byte	0x18
 432 01d7 29000000 		.4byte	0x29
 433 01db 15       		.uleb128 0x15
 434 01dc C7000000 		.4byte	.LASF15
 435 01e0 01       		.byte	0x1
 436 01e1 11       		.byte	0x11
 437 01e2 08       		.byte	0x8
 438 01e3 29000000 		.4byte	0x29
 439 01e7 15       		.uleb128 0x15
 440 01e8 EB010000 		.4byte	.LASF16
 441 01ec 01       		.byte	0x1
 442 01ed 12       		.byte	0x12
 443 01ee 08       		.byte	0x8
 444 01ef 29000000 		.4byte	0x29
 445 01f3 15       		.uleb128 0x15
 446 01f4 7F000000 		.4byte	.LASF17
 447 01f8 01       		.byte	0x1
 448 01f9 13       		.byte	0x13
 449 01fa 08       		.byte	0x8
 450 01fb 29000000 		.4byte	0x29
ARM GAS  /tmp/ccmEEoE6.s 			page 10


 451 01ff 00       		.byte	0
 452 0200 13       		.uleb128 0x13
 453 0201 01       		.byte	0x1
 454 0202 90000000 		.4byte	.LASF19
 455 0206 01       		.byte	0x1
 456 0207 05       		.byte	0x5
 457 0208 07       		.byte	0x7
 458 0209 01       		.byte	0x1
 459 020a 29000000 		.4byte	0x29
 460 020e 01       		.byte	0x1
 461 020f 44020000 		.4byte	0x244
 462 0213 14       		.uleb128 0x14
 463 0214 60000000 		.4byte	.LASF20
 464 0218 01       		.byte	0x1
 465 0219 05       		.byte	0x5
 466 021a 1A       		.byte	0x1a
 467 021b 29000000 		.4byte	0x29
 468 021f 15       		.uleb128 0x15
 469 0220 2F000000 		.4byte	.LASF21
 470 0224 01       		.byte	0x1
 471 0225 07       		.byte	0x7
 472 0226 08       		.byte	0x8
 473 0227 29000000 		.4byte	0x29
 474 022b 15       		.uleb128 0x15
 475 022c B6010000 		.4byte	.LASF22
 476 0230 01       		.byte	0x1
 477 0231 08       		.byte	0x8
 478 0232 08       		.byte	0x8
 479 0233 29000000 		.4byte	0x29
 480 0237 15       		.uleb128 0x15
 481 0238 F1010000 		.4byte	.LASF23
 482 023c 01       		.byte	0x1
 483 023d 09       		.byte	0x9
 484 023e 08       		.byte	0x8
 485 023f 29000000 		.4byte	0x29
 486 0243 00       		.byte	0
 487 0244 16       		.uleb128 0x16
 488 0245 00020000 		.4byte	0x200
 489 0249 00000000 		.4byte	.LFB0
 490 024d 18000000 		.4byte	.LFE0
 491 0251 02       		.byte	0x2
 492 0252 7D       		.byte	0x7d
 493 0253 00       		.sleb128 0
 494 0254 01       		.byte	0x1
 495 0255 88020000 		.4byte	0x288
 496 0259 0D       		.uleb128 0xd
 497 025a 13020000 		.4byte	0x213
 498 025e CC000000 		.4byte	.LLST0
 499 0262 C8000000 		.4byte	.LVUS0
 500 0266 0F       		.uleb128 0xf
 501 0267 1F020000 		.4byte	0x21f
 502 026b F2000000 		.4byte	.LLST1
 503 026f F0000000 		.4byte	.LVUS1
 504 0273 10       		.uleb128 0x10
 505 0274 2B020000 		.4byte	0x22b
 506 0278 04       		.byte	0x4
 507 0279 00004B43 		.4byte	0x434b0000
ARM GAS  /tmp/ccmEEoE6.s 			page 11


 508 027d 10       		.uleb128 0x10
 509 027e 37020000 		.4byte	0x237
 510 0282 04       		.byte	0x4
 511 0283 00000040 		.4byte	0x40000000
 512 0287 00       		.byte	0
 513 0288 17       		.uleb128 0x17
 514 0289 BC010000 		.4byte	0x1bc
 515 028d 00000000 		.4byte	.LFB1
 516 0291 20000000 		.4byte	.LFE1
 517 0295 02       		.byte	0x2
 518 0296 7D       		.byte	0x7d
 519 0297 00       		.sleb128 0
 520 0298 01       		.byte	0x1
 521 0299 0D       		.uleb128 0xd
 522 029a CF010000 		.4byte	0x1cf
 523 029e 0A010000 		.4byte	.LLST2
 524 02a2 06010000 		.4byte	.LVUS2
 525 02a6 12       		.uleb128 0x12
 526 02a7 DB010000 		.4byte	0x1db
 527 02ab 10       		.uleb128 0x10
 528 02ac E7010000 		.4byte	0x1e7
 529 02b0 04       		.byte	0x4
 530 02b1 9A99993E 		.4byte	0x3e99999a
 531 02b5 10       		.uleb128 0x10
 532 02b6 F3010000 		.4byte	0x1f3
 533 02ba 04       		.byte	0x4
 534 02bb 3333333F 		.4byte	0x3f333333
 535 02bf 00       		.byte	0
 536 02c0 00       		.byte	0
 537              		.section	.debug_abbrev,"",%progbits
 538              	.Ldebug_abbrev0:
 539 0000 01       		.uleb128 0x1
 540 0001 11       		.uleb128 0x11
 541 0002 01       		.byte	0x1
 542 0003 25       		.uleb128 0x25
 543 0004 0E       		.uleb128 0xe
 544 0005 13       		.uleb128 0x13
 545 0006 0B       		.uleb128 0xb
 546 0007 03       		.uleb128 0x3
 547 0008 0E       		.uleb128 0xe
 548 0009 1B       		.uleb128 0x1b
 549 000a 0E       		.uleb128 0xe
 550 000b 55       		.uleb128 0x55
 551 000c 06       		.uleb128 0x6
 552 000d 11       		.uleb128 0x11
 553 000e 01       		.uleb128 0x1
 554 000f 52       		.uleb128 0x52
 555 0010 01       		.uleb128 0x1
 556 0011 10       		.uleb128 0x10
 557 0012 06       		.uleb128 0x6
 558 0013 00       		.byte	0
 559 0014 00       		.byte	0
 560 0015 02       		.uleb128 0x2
 561 0016 24       		.uleb128 0x24
 562 0017 00       		.byte	0
 563 0018 0B       		.uleb128 0xb
 564 0019 0B       		.uleb128 0xb
ARM GAS  /tmp/ccmEEoE6.s 			page 12


 565 001a 3E       		.uleb128 0x3e
 566 001b 0B       		.uleb128 0xb
 567 001c 03       		.uleb128 0x3
 568 001d 0E       		.uleb128 0xe
 569 001e 00       		.byte	0
 570 001f 00       		.byte	0
 571 0020 03       		.uleb128 0x3
 572 0021 24       		.uleb128 0x24
 573 0022 00       		.byte	0
 574 0023 0B       		.uleb128 0xb
 575 0024 0B       		.uleb128 0xb
 576 0025 3E       		.uleb128 0x3e
 577 0026 0B       		.uleb128 0xb
 578 0027 03       		.uleb128 0x3
 579 0028 08       		.uleb128 0x8
 580 0029 00       		.byte	0
 581 002a 00       		.byte	0
 582 002b 04       		.uleb128 0x4
 583 002c 2E       		.uleb128 0x2e
 584 002d 01       		.byte	0x1
 585 002e 3F       		.uleb128 0x3f
 586 002f 0C       		.uleb128 0xc
 587 0030 03       		.uleb128 0x3
 588 0031 0E       		.uleb128 0xe
 589 0032 3A       		.uleb128 0x3a
 590 0033 0B       		.uleb128 0xb
 591 0034 3B       		.uleb128 0x3b
 592 0035 0B       		.uleb128 0xb
 593 0036 39       		.uleb128 0x39
 594 0037 0B       		.uleb128 0xb
 595 0038 27       		.uleb128 0x27
 596 0039 0C       		.uleb128 0xc
 597 003a 49       		.uleb128 0x49
 598 003b 13       		.uleb128 0x13
 599 003c 11       		.uleb128 0x11
 600 003d 01       		.uleb128 0x1
 601 003e 12       		.uleb128 0x12
 602 003f 01       		.uleb128 0x1
 603 0040 40       		.uleb128 0x40
 604 0041 0A       		.uleb128 0xa
 605 0042 9742     		.uleb128 0x2117
 606 0044 0C       		.uleb128 0xc
 607 0045 01       		.uleb128 0x1
 608 0046 13       		.uleb128 0x13
 609 0047 00       		.byte	0
 610 0048 00       		.byte	0
 611 0049 05       		.uleb128 0x5
 612 004a 05       		.uleb128 0x5
 613 004b 00       		.byte	0
 614 004c 03       		.uleb128 0x3
 615 004d 0E       		.uleb128 0xe
 616 004e 3A       		.uleb128 0x3a
 617 004f 0B       		.uleb128 0xb
 618 0050 3B       		.uleb128 0x3b
 619 0051 0B       		.uleb128 0xb
 620 0052 39       		.uleb128 0x39
 621 0053 0B       		.uleb128 0xb
ARM GAS  /tmp/ccmEEoE6.s 			page 13


 622 0054 49       		.uleb128 0x49
 623 0055 13       		.uleb128 0x13
 624 0056 02       		.uleb128 0x2
 625 0057 06       		.uleb128 0x6
 626 0058 B742     		.uleb128 0x2137
 627 005a 06       		.uleb128 0x6
 628 005b 00       		.byte	0
 629 005c 00       		.byte	0
 630 005d 06       		.uleb128 0x6
 631 005e 05       		.uleb128 0x5
 632 005f 00       		.byte	0
 633 0060 03       		.uleb128 0x3
 634 0061 08       		.uleb128 0x8
 635 0062 3A       		.uleb128 0x3a
 636 0063 0B       		.uleb128 0xb
 637 0064 3B       		.uleb128 0x3b
 638 0065 0B       		.uleb128 0xb
 639 0066 39       		.uleb128 0x39
 640 0067 0B       		.uleb128 0xb
 641 0068 49       		.uleb128 0x49
 642 0069 13       		.uleb128 0x13
 643 006a 02       		.uleb128 0x2
 644 006b 0A       		.uleb128 0xa
 645 006c 00       		.byte	0
 646 006d 00       		.byte	0
 647 006e 07       		.uleb128 0x7
 648 006f 34       		.uleb128 0x34
 649 0070 00       		.byte	0
 650 0071 03       		.uleb128 0x3
 651 0072 0E       		.uleb128 0xe
 652 0073 3A       		.uleb128 0x3a
 653 0074 0B       		.uleb128 0xb
 654 0075 3B       		.uleb128 0x3b
 655 0076 0B       		.uleb128 0xb
 656 0077 39       		.uleb128 0x39
 657 0078 0B       		.uleb128 0xb
 658 0079 49       		.uleb128 0x49
 659 007a 13       		.uleb128 0x13
 660 007b 1C       		.uleb128 0x1c
 661 007c 0A       		.uleb128 0xa
 662 007d 00       		.byte	0
 663 007e 00       		.byte	0
 664 007f 08       		.uleb128 0x8
 665 0080 34       		.uleb128 0x34
 666 0081 00       		.byte	0
 667 0082 03       		.uleb128 0x3
 668 0083 08       		.uleb128 0x8
 669 0084 3A       		.uleb128 0x3a
 670 0085 0B       		.uleb128 0xb
 671 0086 3B       		.uleb128 0x3b
 672 0087 0B       		.uleb128 0xb
 673 0088 39       		.uleb128 0x39
 674 0089 0B       		.uleb128 0xb
 675 008a 49       		.uleb128 0x49
 676 008b 13       		.uleb128 0x13
 677 008c 1C       		.uleb128 0x1c
 678 008d 0A       		.uleb128 0xa
ARM GAS  /tmp/ccmEEoE6.s 			page 14


 679 008e 00       		.byte	0
 680 008f 00       		.byte	0
 681 0090 09       		.uleb128 0x9
 682 0091 34       		.uleb128 0x34
 683 0092 00       		.byte	0
 684 0093 03       		.uleb128 0x3
 685 0094 08       		.uleb128 0x8
 686 0095 3A       		.uleb128 0x3a
 687 0096 0B       		.uleb128 0xb
 688 0097 3B       		.uleb128 0x3b
 689 0098 0B       		.uleb128 0xb
 690 0099 39       		.uleb128 0x39
 691 009a 0B       		.uleb128 0xb
 692 009b 49       		.uleb128 0x49
 693 009c 13       		.uleb128 0x13
 694 009d 02       		.uleb128 0x2
 695 009e 06       		.uleb128 0x6
 696 009f B742     		.uleb128 0x2137
 697 00a1 06       		.uleb128 0x6
 698 00a2 00       		.byte	0
 699 00a3 00       		.byte	0
 700 00a4 0A       		.uleb128 0xa
 701 00a5 34       		.uleb128 0x34
 702 00a6 00       		.byte	0
 703 00a7 03       		.uleb128 0x3
 704 00a8 08       		.uleb128 0x8
 705 00a9 3A       		.uleb128 0x3a
 706 00aa 0B       		.uleb128 0xb
 707 00ab 3B       		.uleb128 0x3b
 708 00ac 0B       		.uleb128 0xb
 709 00ad 39       		.uleb128 0x39
 710 00ae 0B       		.uleb128 0xb
 711 00af 49       		.uleb128 0x49
 712 00b0 13       		.uleb128 0x13
 713 00b1 00       		.byte	0
 714 00b2 00       		.byte	0
 715 00b3 0B       		.uleb128 0xb
 716 00b4 34       		.uleb128 0x34
 717 00b5 00       		.byte	0
 718 00b6 03       		.uleb128 0x3
 719 00b7 0E       		.uleb128 0xe
 720 00b8 3A       		.uleb128 0x3a
 721 00b9 0B       		.uleb128 0xb
 722 00ba 3B       		.uleb128 0x3b
 723 00bb 0B       		.uleb128 0xb
 724 00bc 39       		.uleb128 0x39
 725 00bd 0B       		.uleb128 0xb
 726 00be 49       		.uleb128 0x49
 727 00bf 13       		.uleb128 0x13
 728 00c0 02       		.uleb128 0x2
 729 00c1 06       		.uleb128 0x6
 730 00c2 B742     		.uleb128 0x2137
 731 00c4 06       		.uleb128 0x6
 732 00c5 00       		.byte	0
 733 00c6 00       		.byte	0
 734 00c7 0C       		.uleb128 0xc
 735 00c8 1D       		.uleb128 0x1d
ARM GAS  /tmp/ccmEEoE6.s 			page 15


 736 00c9 01       		.byte	0x1
 737 00ca 31       		.uleb128 0x31
 738 00cb 13       		.uleb128 0x13
 739 00cc 52       		.uleb128 0x52
 740 00cd 01       		.uleb128 0x1
 741 00ce B842     		.uleb128 0x2138
 742 00d0 0B       		.uleb128 0xb
 743 00d1 55       		.uleb128 0x55
 744 00d2 06       		.uleb128 0x6
 745 00d3 58       		.uleb128 0x58
 746 00d4 0B       		.uleb128 0xb
 747 00d5 59       		.uleb128 0x59
 748 00d6 0B       		.uleb128 0xb
 749 00d7 57       		.uleb128 0x57
 750 00d8 0B       		.uleb128 0xb
 751 00d9 01       		.uleb128 0x1
 752 00da 13       		.uleb128 0x13
 753 00db 00       		.byte	0
 754 00dc 00       		.byte	0
 755 00dd 0D       		.uleb128 0xd
 756 00de 05       		.uleb128 0x5
 757 00df 00       		.byte	0
 758 00e0 31       		.uleb128 0x31
 759 00e1 13       		.uleb128 0x13
 760 00e2 02       		.uleb128 0x2
 761 00e3 06       		.uleb128 0x6
 762 00e4 B742     		.uleb128 0x2137
 763 00e6 06       		.uleb128 0x6
 764 00e7 00       		.byte	0
 765 00e8 00       		.byte	0
 766 00e9 0E       		.uleb128 0xe
 767 00ea 0B       		.uleb128 0xb
 768 00eb 01       		.byte	0x1
 769 00ec 55       		.uleb128 0x55
 770 00ed 06       		.uleb128 0x6
 771 00ee 00       		.byte	0
 772 00ef 00       		.byte	0
 773 00f0 0F       		.uleb128 0xf
 774 00f1 34       		.uleb128 0x34
 775 00f2 00       		.byte	0
 776 00f3 31       		.uleb128 0x31
 777 00f4 13       		.uleb128 0x13
 778 00f5 02       		.uleb128 0x2
 779 00f6 06       		.uleb128 0x6
 780 00f7 B742     		.uleb128 0x2137
 781 00f9 06       		.uleb128 0x6
 782 00fa 00       		.byte	0
 783 00fb 00       		.byte	0
 784 00fc 10       		.uleb128 0x10
 785 00fd 34       		.uleb128 0x34
 786 00fe 00       		.byte	0
 787 00ff 31       		.uleb128 0x31
 788 0100 13       		.uleb128 0x13
 789 0101 1C       		.uleb128 0x1c
 790 0102 0A       		.uleb128 0xa
 791 0103 00       		.byte	0
 792 0104 00       		.byte	0
ARM GAS  /tmp/ccmEEoE6.s 			page 16


 793 0105 11       		.uleb128 0x11
 794 0106 1D       		.uleb128 0x1d
 795 0107 01       		.byte	0x1
 796 0108 31       		.uleb128 0x31
 797 0109 13       		.uleb128 0x13
 798 010a 52       		.uleb128 0x52
 799 010b 01       		.uleb128 0x1
 800 010c B842     		.uleb128 0x2138
 801 010e 0B       		.uleb128 0xb
 802 010f 55       		.uleb128 0x55
 803 0110 06       		.uleb128 0x6
 804 0111 58       		.uleb128 0x58
 805 0112 0B       		.uleb128 0xb
 806 0113 59       		.uleb128 0x59
 807 0114 0B       		.uleb128 0xb
 808 0115 57       		.uleb128 0x57
 809 0116 0B       		.uleb128 0xb
 810 0117 00       		.byte	0
 811 0118 00       		.byte	0
 812 0119 12       		.uleb128 0x12
 813 011a 34       		.uleb128 0x34
 814 011b 00       		.byte	0
 815 011c 31       		.uleb128 0x31
 816 011d 13       		.uleb128 0x13
 817 011e 00       		.byte	0
 818 011f 00       		.byte	0
 819 0120 13       		.uleb128 0x13
 820 0121 2E       		.uleb128 0x2e
 821 0122 01       		.byte	0x1
 822 0123 3F       		.uleb128 0x3f
 823 0124 0C       		.uleb128 0xc
 824 0125 03       		.uleb128 0x3
 825 0126 0E       		.uleb128 0xe
 826 0127 3A       		.uleb128 0x3a
 827 0128 0B       		.uleb128 0xb
 828 0129 3B       		.uleb128 0x3b
 829 012a 0B       		.uleb128 0xb
 830 012b 39       		.uleb128 0x39
 831 012c 0B       		.uleb128 0xb
 832 012d 27       		.uleb128 0x27
 833 012e 0C       		.uleb128 0xc
 834 012f 49       		.uleb128 0x49
 835 0130 13       		.uleb128 0x13
 836 0131 20       		.uleb128 0x20
 837 0132 0B       		.uleb128 0xb
 838 0133 01       		.uleb128 0x1
 839 0134 13       		.uleb128 0x13
 840 0135 00       		.byte	0
 841 0136 00       		.byte	0
 842 0137 14       		.uleb128 0x14
 843 0138 05       		.uleb128 0x5
 844 0139 00       		.byte	0
 845 013a 03       		.uleb128 0x3
 846 013b 0E       		.uleb128 0xe
 847 013c 3A       		.uleb128 0x3a
 848 013d 0B       		.uleb128 0xb
 849 013e 3B       		.uleb128 0x3b
ARM GAS  /tmp/ccmEEoE6.s 			page 17


 850 013f 0B       		.uleb128 0xb
 851 0140 39       		.uleb128 0x39
 852 0141 0B       		.uleb128 0xb
 853 0142 49       		.uleb128 0x49
 854 0143 13       		.uleb128 0x13
 855 0144 00       		.byte	0
 856 0145 00       		.byte	0
 857 0146 15       		.uleb128 0x15
 858 0147 34       		.uleb128 0x34
 859 0148 00       		.byte	0
 860 0149 03       		.uleb128 0x3
 861 014a 0E       		.uleb128 0xe
 862 014b 3A       		.uleb128 0x3a
 863 014c 0B       		.uleb128 0xb
 864 014d 3B       		.uleb128 0x3b
 865 014e 0B       		.uleb128 0xb
 866 014f 39       		.uleb128 0x39
 867 0150 0B       		.uleb128 0xb
 868 0151 49       		.uleb128 0x49
 869 0152 13       		.uleb128 0x13
 870 0153 00       		.byte	0
 871 0154 00       		.byte	0
 872 0155 16       		.uleb128 0x16
 873 0156 2E       		.uleb128 0x2e
 874 0157 01       		.byte	0x1
 875 0158 31       		.uleb128 0x31
 876 0159 13       		.uleb128 0x13
 877 015a 11       		.uleb128 0x11
 878 015b 01       		.uleb128 0x1
 879 015c 12       		.uleb128 0x12
 880 015d 01       		.uleb128 0x1
 881 015e 40       		.uleb128 0x40
 882 015f 0A       		.uleb128 0xa
 883 0160 9742     		.uleb128 0x2117
 884 0162 0C       		.uleb128 0xc
 885 0163 01       		.uleb128 0x1
 886 0164 13       		.uleb128 0x13
 887 0165 00       		.byte	0
 888 0166 00       		.byte	0
 889 0167 17       		.uleb128 0x17
 890 0168 2E       		.uleb128 0x2e
 891 0169 01       		.byte	0x1
 892 016a 31       		.uleb128 0x31
 893 016b 13       		.uleb128 0x13
 894 016c 11       		.uleb128 0x11
 895 016d 01       		.uleb128 0x1
 896 016e 12       		.uleb128 0x12
 897 016f 01       		.uleb128 0x1
 898 0170 40       		.uleb128 0x40
 899 0171 0A       		.uleb128 0xa
 900 0172 9742     		.uleb128 0x2117
 901 0174 0C       		.uleb128 0xc
 902 0175 00       		.byte	0
 903 0176 00       		.byte	0
 904 0177 00       		.byte	0
 905              		.section	.debug_loc,"",%progbits
 906              	.Ldebug_loc0:
ARM GAS  /tmp/ccmEEoE6.s 			page 18


 907              	.LVUS3:
 908 0000 00       		.uleb128 0
 909 0001 00       		.uleb128 .LVU48
 910 0002 00       		.uleb128 .LVU48
 911 0003 00       		.uleb128 0
 912              	.LLST3:
 913 0004 00000000 		.4byte	.LVL6
 914 0008 30000000 		.4byte	.LVL11
 915 000c 0200     		.2byte	0x2
 916 000e 90       		.byte	0x90
 917 000f 40       		.uleb128 0x40
 918 0010 30000000 		.4byte	.LVL11
 919 0014 44000000 		.4byte	.LFE2
 920 0018 0600     		.2byte	0x6
 921 001a F3       		.byte	0xf3
 922 001b 03       		.uleb128 0x3
 923 001c F5       		.byte	0xf5
 924 001d 40       		.uleb128 0x40
 925 001e 29       		.uleb128 0x29
 926 001f 9F       		.byte	0x9f
 927 0020 00000000 		.4byte	0
 928 0024 00000000 		.4byte	0
 929              	.LVUS4:
 930 0028 01       		.uleb128 .LVU34
 931 0029 00       		.uleb128 0
 932              	.LLST4:
 933 002a 20000000 		.4byte	.LVL8
 934 002e 44000000 		.4byte	.LFE2
 935 0032 0200     		.2byte	0x2
 936 0034 90       		.byte	0x90
 937 0035 4E       		.uleb128 0x4e
 938 0036 00000000 		.4byte	0
 939 003a 00000000 		.4byte	0
 940              	.LVUS5:
 941 003e 04       		.uleb128 .LVU45
 942 003f 00       		.uleb128 .LVU47
 943              	.LLST5:
 944 0040 28000000 		.4byte	.LVL9
 945 0044 2C000000 		.4byte	.LVL10
 946 0048 1400     		.2byte	0x14
 947 004a F5       		.byte	0xf5
 948 004b 4F       		.uleb128 0x4f
 949 004c 29       		.uleb128 0x29
 950 004d F5       		.byte	0xf5
 951 004e 4E       		.uleb128 0x4e
 952 004f 29       		.uleb128 0x29
 953 0050 1C       		.byte	0x1c
 954 0051 F5       		.byte	0xf5
 955 0052 41       		.uleb128 0x41
 956 0053 29       		.uleb128 0x29
 957 0054 F4       		.byte	0xf4
 958 0055 29       		.uleb128 0x29
 959 0056 04       		.byte	0x4
 960 0057 8845484D 		.4byte	0x4d484588
 961 005b 1B       		.byte	0x1b
 962 005c 1E       		.byte	0x1e
 963 005d 9F       		.byte	0x9f
ARM GAS  /tmp/ccmEEoE6.s 			page 19


 964 005e 00000000 		.4byte	0
 965 0062 00000000 		.4byte	0
 966              	.LVUS6:
 967 0066 03       		.uleb128 .LVU44
 968 0067 00       		.uleb128 0
 969              	.LLST6:
 970 0068 28000000 		.4byte	.LVL9
 971 006c 44000000 		.4byte	.LFE2
 972 0070 0C00     		.2byte	0xc
 973 0072 F5       		.byte	0xf5
 974 0073 41       		.uleb128 0x41
 975 0074 29       		.uleb128 0x29
 976 0075 F4       		.byte	0xf4
 977 0076 29       		.uleb128 0x29
 978 0077 04       		.byte	0x4
 979 0078 8845484D 		.4byte	0x4d484588
 980 007c 1B       		.byte	0x1b
 981 007d 9F       		.byte	0x9f
 982 007e 00000000 		.4byte	0
 983 0082 00000000 		.4byte	0
 984              	.LVUS7:
 985 0086 00       		.uleb128 .LVU25
 986 0087 01       		.uleb128 .LVU34
 987              	.LLST7:
 988 0088 0C000000 		.4byte	.LVL7
 989 008c 20000000 		.4byte	.LVL8
 990 0090 0200     		.2byte	0x2
 991 0092 90       		.byte	0x90
 992 0093 40       		.uleb128 0x40
 993 0094 00000000 		.4byte	0
 994 0098 00000000 		.4byte	0
 995              	.LVUS8:
 996 009c 00       		.uleb128 .LVU33
 997 009d 01       		.uleb128 .LVU34
 998              	.LLST8:
 999 009e 20000000 		.4byte	.LVL8
 1000 00a2 20000000 		.4byte	.LVL8
 1001 00a6 0200     		.2byte	0x2
 1002 00a8 90       		.byte	0x90
 1003 00a9 4E       		.uleb128 0x4e
 1004 00aa 00000000 		.4byte	0
 1005 00ae 00000000 		.4byte	0
 1006              	.LVUS9:
 1007 00b2 03       		.uleb128 .LVU36
 1008 00b3 01       		.uleb128 .LVU42
 1009              	.LLST9:
 1010 00b4 20000000 		.4byte	.LVL8
 1011 00b8 28000000 		.4byte	.LVL9
 1012 00bc 0200     		.2byte	0x2
 1013 00be 90       		.byte	0x90
 1014 00bf 40       		.uleb128 0x40
 1015 00c0 00000000 		.4byte	0
 1016 00c4 00000000 		.4byte	0
 1017              	.LVUS0:
 1018 00c8 00       		.uleb128 0
 1019 00c9 00       		.uleb128 .LVU9
 1020 00ca 00       		.uleb128 .LVU9
ARM GAS  /tmp/ccmEEoE6.s 			page 20


 1021 00cb 00       		.uleb128 0
 1022              	.LLST0:
 1023 00cc 00000000 		.4byte	.LVL0
 1024 00d0 10000000 		.4byte	.LVL3
 1025 00d4 0200     		.2byte	0x2
 1026 00d6 90       		.byte	0x90
 1027 00d7 40       		.uleb128 0x40
 1028 00d8 10000000 		.4byte	.LVL3
 1029 00dc 18000000 		.4byte	.LFE0
 1030 00e0 0600     		.2byte	0x6
 1031 00e2 F3       		.byte	0xf3
 1032 00e3 03       		.uleb128 0x3
 1033 00e4 F5       		.byte	0xf5
 1034 00e5 40       		.uleb128 0x40
 1035 00e6 29       		.uleb128 0x29
 1036 00e7 9F       		.byte	0x9f
 1037 00e8 00000000 		.4byte	0
 1038 00ec 00000000 		.4byte	0
 1039              	.LVUS1:
 1040 00f0 00       		.uleb128 .LVU8
 1041 00f1 00       		.uleb128 0
 1042              	.LLST1:
 1043 00f2 0C000000 		.4byte	.LVL2
 1044 00f6 18000000 		.4byte	.LFE0
 1045 00fa 0200     		.2byte	0x2
 1046 00fc 90       		.byte	0x90
 1047 00fd 4F       		.uleb128 0x4f
 1048 00fe 00000000 		.4byte	0
 1049 0102 00000000 		.4byte	0
 1050              	.LVUS2:
 1051 0106 00       		.uleb128 0
 1052 0107 00       		.uleb128 .LVU17
 1053 0108 00       		.uleb128 .LVU17
 1054 0109 00       		.uleb128 0
 1055              	.LLST2:
 1056 010a 00000000 		.4byte	.LVL4
 1057 010e 14000000 		.4byte	.LVL5
 1058 0112 0200     		.2byte	0x2
 1059 0114 90       		.byte	0x90
 1060 0115 40       		.uleb128 0x40
 1061 0116 14000000 		.4byte	.LVL5
 1062 011a 20000000 		.4byte	.LFE1
 1063 011e 0600     		.2byte	0x6
 1064 0120 F3       		.byte	0xf3
 1065 0121 03       		.uleb128 0x3
 1066 0122 F5       		.byte	0xf5
 1067 0123 40       		.uleb128 0x40
 1068 0124 29       		.uleb128 0x29
 1069 0125 9F       		.byte	0x9f
 1070 0126 00000000 		.4byte	0
 1071 012a 00000000 		.4byte	0
 1072              		.section	.debug_aranges,"",%progbits
 1073 0000 2C000000 		.4byte	0x2c
 1074 0004 0200     		.2byte	0x2
 1075 0006 00000000 		.4byte	.Ldebug_info0
 1076 000a 04       		.byte	0x4
 1077 000b 00       		.byte	0
ARM GAS  /tmp/ccmEEoE6.s 			page 21


 1078 000c 0000     		.2byte	0
 1079 000e 0000     		.2byte	0
 1080 0010 00000000 		.4byte	.LFB0
 1081 0014 18000000 		.4byte	.LFE0-.LFB0
 1082 0018 00000000 		.4byte	.LFB1
 1083 001c 20000000 		.4byte	.LFE1-.LFB1
 1084 0020 00000000 		.4byte	.LFB2
 1085 0024 44000000 		.4byte	.LFE2-.LFB2
 1086 0028 00000000 		.4byte	0
 1087 002c 00000000 		.4byte	0
 1088              		.section	.debug_ranges,"",%progbits
 1089              	.Ldebug_ranges0:
 1090 0000 04000000 		.4byte	.LBB6
 1091 0004 0C000000 		.4byte	.LBE6
 1092 0008 1C000000 		.4byte	.LBB15
 1093 000c 20000000 		.4byte	.LBE15
 1094 0010 00000000 		.4byte	0
 1095 0014 00000000 		.4byte	0
 1096 0018 04000000 		.4byte	.LBB7
 1097 001c 0C000000 		.4byte	.LBE7
 1098 0020 0C000000 		.4byte	.LBB8
 1099 0024 0C000000 		.4byte	.LBE8
 1100 0028 1C000000 		.4byte	.LBB9
 1101 002c 20000000 		.4byte	.LBE9
 1102 0030 00000000 		.4byte	0
 1103 0034 00000000 		.4byte	0
 1104 0038 0C000000 		.4byte	.LBB10
 1105 003c 10000000 		.4byte	.LBE10
 1106 0040 14000000 		.4byte	.LBB14
 1107 0044 1C000000 		.4byte	.LBE14
 1108 0048 20000000 		.4byte	.LBB16
 1109 004c 28000000 		.4byte	.LBE16
 1110 0050 00000000 		.4byte	0
 1111 0054 00000000 		.4byte	0
 1112 0058 00000000 		.4byte	.LFB0
 1113 005c 18000000 		.4byte	.LFE0
 1114 0060 00000000 		.4byte	.LFB1
 1115 0064 20000000 		.4byte	.LFE1
 1116 0068 00000000 		.4byte	.LFB2
 1117 006c 44000000 		.4byte	.LFE2
 1118 0070 00000000 		.4byte	0
 1119 0074 00000000 		.4byte	0
 1120              		.section	.debug_line,"",%progbits
 1121              	.Ldebug_line0:
 1122 0000 C6000000 		.section	.debug_str,"MS",%progbits,1
 1122      03002200 
 1122      00000201 
 1122      FB0E0D00 
 1122      01010101 
 1123              	.LASF26:
 1124 0000 2F686F6D 		.ascii	"/home/jacob/research/pebble\000"
 1124      652F6A61 
 1124      636F622F 
 1124      72657365 
 1124      61726368 
 1125              	.LASF18:
 1126 001c 67657441 		.ascii	"getAlbedo\000"
ARM GAS  /tmp/ccmEEoE6.s 			page 22


 1126      6C626564 
 1126      6F00
 1127              	.LASF27:
 1128 0026 6E657874 		.ascii	"nextStep\000"
 1128      53746570 
 1128      00
 1129              	.LASF21:
 1130 002f 69726164 		.ascii	"irad\000"
 1130      00
 1131              	.LASF0:
 1132 0034 666C6F61 		.ascii	"float\000"
 1132      7400
 1133              	.LASF5:
 1134 003a 756E7369 		.ascii	"unsigned char\000"
 1134      676E6564 
 1134      20636861 
 1134      7200
 1135              	.LASF14:
 1136 0048 6474656D 		.ascii	"dtemp\000"
 1136      7000
 1137              	.LASF9:
 1138 004e 6C6F6E67 		.ascii	"long unsigned int\000"
 1138      20756E73 
 1138      69676E65 
 1138      6420696E 
 1138      7400
 1139              	.LASF20:
 1140 0060 74656D70 		.ascii	"temp\000"
 1140      00
 1141              	.LASF7:
 1142 0065 73686F72 		.ascii	"short unsigned int\000"
 1142      7420756E 
 1142      7369676E 
 1142      65642069 
 1142      6E7400
 1143              	.LASF12:
 1144 0078 646F7562 		.ascii	"double\000"
 1144      6C6500
 1145              	.LASF17:
 1146 007f 61696365 		.ascii	"aice\000"
 1146      00
 1147              	.LASF25:
 1148 0084 7372632F 		.ascii	"src/model.c\000"
 1148      6D6F6465 
 1148      6C2E6300 
 1149              	.LASF19:
 1150 0090 67657449 		.ascii	"getInfrared\000"
 1150      6E667261 
 1150      72656400 
 1151              	.LASF1:
 1152 009c 756E7369 		.ascii	"unsigned int\000"
 1152      676E6564 
 1152      20696E74 
 1152      00
 1153              	.LASF10:
 1154 00a9 6C6F6E67 		.ascii	"long long unsigned int\000"
 1154      206C6F6E 
ARM GAS  /tmp/ccmEEoE6.s 			page 23


 1154      6720756E 
 1154      7369676E 
 1154      65642069 
 1155              	.LASF13:
 1156 00c0 736F6C63 		.ascii	"solcon\000"
 1156      6F6E00
 1157              	.LASF15:
 1158 00c7 616C6265 		.ascii	"albedo\000"
 1158      646F00
 1159              	.LASF24:
 1160 00ce 474E5520 		.ascii	"GNU C17 12.2.0 -mthumb -mcpu=cortex-m7 -mfloat-abi="
 1160      43313720 
 1160      31322E32 
 1160      2E30202D 
 1160      6D746875 
 1161 0101 68617264 		.ascii	"hard -mfpu=fpv5-sp-d16 -march=armv7e-m+fpv5 -g -gdw"
 1161      202D6D66 
 1161      70753D66 
 1161      7076352D 
 1161      73702D64 
 1162 0134 6172662D 		.ascii	"arf-2 -O2 -falign-functions=16 -fomit-frame-pointer"
 1162      32202D4F 
 1162      32202D66 
 1162      616C6967 
 1162      6E2D6675 
 1163 0167 202D6666 		.ascii	" -ffunction-sections -fdata-sections -fsingle-preci"
 1163      756E6374 
 1163      696F6E2D 
 1163      73656374 
 1163      696F6E73 
 1164 019a 73696F6E 		.ascii	"sion-constant\000"
 1164      2D636F6E 
 1164      7374616E 
 1164      7400
 1165              	.LASF2:
 1166 01a8 6C6F6E67 		.ascii	"long long int\000"
 1166      206C6F6E 
 1166      6720696E 
 1166      7400
 1167              	.LASF22:
 1168 01b6 41726164 		.ascii	"Arad\000"
 1168      00
 1169              	.LASF11:
 1170 01bb 63686172 		.ascii	"char\000"
 1170      00
 1171              	.LASF6:
 1172 01c0 73686F72 		.ascii	"short int\000"
 1172      7420696E 
 1172      7400
 1173              	.LASF8:
 1174 01ca 6C6F6E67 		.ascii	"long int\000"
 1174      20696E74 
 1174      00
 1175              	.LASF3:
 1176 01d3 6C6F6E67 		.ascii	"long double\000"
 1176      20646F75 
 1176      626C6500 
ARM GAS  /tmp/ccmEEoE6.s 			page 24


 1177              	.LASF4:
 1178 01df 7369676E 		.ascii	"signed char\000"
 1178      65642063 
 1178      68617200 
 1179              	.LASF16:
 1180 01eb 616C616E 		.ascii	"aland\000"
 1180      6400
 1181              	.LASF23:
 1182 01f1 42726164 		.ascii	"Brad\000"
 1182      00
 1183              		.ident	"GCC: (Fedora 12.2.0-1.fc36) 12.2.0"
ARM GAS  /tmp/ccmEEoE6.s 			page 25


DEFINED SYMBOLS
                            *ABS*:0000000000000000 model.c
     /tmp/ccmEEoE6.s:25     .text.getInfrared:0000000000000000 $t
     /tmp/ccmEEoE6.s:32     .text.getInfrared:0000000000000000 getInfrared
     /tmp/ccmEEoE6.s:62     .text.getInfrared:0000000000000014 $d
     /tmp/ccmEEoE6.s:67     .text.getAlbedo:0000000000000000 $t
     /tmp/ccmEEoE6.s:74     .text.getAlbedo:0000000000000000 getAlbedo
     /tmp/ccmEEoE6.s:101    .text.getAlbedo:0000000000000018 $d
     /tmp/ccmEEoE6.s:107    .text.nextStep:0000000000000000 $t
     /tmp/ccmEEoE6.s:114    .text.nextStep:0000000000000000 nextStep
     /tmp/ccmEEoE6.s:203    .text.nextStep:0000000000000034 $d

NO UNDEFINED SYMBOLS
