ARM GAS  /tmp/ccEAUEYM.s 			page 1


   1              		.cpu cortex-m7
   2              		.arch armv7e-m
   3              		.fpu fpv5-sp-d16
   4              		.eabi_attribute 27, 1	@ Tag_ABI_HardFP_use
   5              		.eabi_attribute 28, 1	@ Tag_ABI_VFP_args
   6              		.eabi_attribute 20, 1	@ Tag_ABI_FP_denormal
   7              		.eabi_attribute 21, 1	@ Tag_ABI_FP_exceptions
   8              		.eabi_attribute 23, 3	@ Tag_ABI_FP_number_model
   9              		.eabi_attribute 24, 1	@ Tag_ABI_align8_needed
  10              		.eabi_attribute 25, 1	@ Tag_ABI_align8_preserved
  11              		.eabi_attribute 26, 1	@ Tag_ABI_enum_size
  12              		.eabi_attribute 30, 2	@ Tag_ABI_optimization_goals
  13              		.eabi_attribute 34, 1	@ Tag_CPU_unaligned_access
  14              		.eabi_attribute 18, 4	@ Tag_ABI_PCS_wchar_t
  15              		.file	"util.c"
  16              	@ GNU C17 (Fedora 12.2.0-1.fc36) version 12.2.0 (arm-none-eabi)
  17              	@	compiled by GNU C version 12.2.1 20220819 (Red Hat 12.2.1-1), GMP version 6.2.1, MPFR version 4.1
  18              	@ GGC heuristics: --param ggc-min-expand=100 --param ggc-min-heapsize=131072
  19              	@ options passed: -mthumb -mcpu=cortex-m7 -mfloat-abi=hard -mfpu=fpv5-sp-d16 -march=armv7e-m+fpv5 -
  20              		.text
  21              	.Ltext0:
  22              		.cfi_sections	.debug_frame
  23              		.file 1 "src/util.c"
  24              		.section	.text.deg2rad,"ax",%progbits
  25              		.align	1
  26              		.p2align 4,,15
  27              		.global	deg2rad
  28              		.syntax unified
  29              		.thumb
  30              		.thumb_func
  31              		.type	deg2rad, %function
  32              	deg2rad:
  33              	.LVL0:
  34              	.LFB0:
   1:src/util.c    **** #include "util.h"
   2:src/util.c    **** #include <inttypes.h>
   3:src/util.c    **** 
   4:src/util.c    **** // Utility Functions for PEBBLE
   5:src/util.c    **** 
   6:src/util.c    **** 
   7:src/util.c    **** float deg2rad( float nrad )
   8:src/util.c    **** {
  35              		.loc 1 8 1 view -0
  36              		.cfi_startproc
  37              		@ args = 0, pretend = 0, frame = 0
  38              		@ frame_needed = 0, uses_anonymous_args = 0
  39              		@ link register save eliminated.
   9:src/util.c    **** 	return nrad * 180.0 / M_PI;
  40              		.loc 1 9 2 view .LVU1
  41              	@ src/util.c:9: 	return nrad * 180.0 / M_PI;
  42              		.loc 1 9 14 is_stmt 0 view .LVU2
  43 0000 9FED047A 		vldr.32	s14, .L3	@ tmp118,
  44              	@ src/util.c:9: 	return nrad * 180.0 / M_PI;
  45              		.loc 1 9 22 view .LVU3
  46 0004 DFED047A 		vldr.32	s15, .L3+4	@ tmp119,
  47              	@ src/util.c:9: 	return nrad * 180.0 / M_PI;
  48              		.loc 1 9 14 view .LVU4
ARM GAS  /tmp/ccEAUEYM.s 			page 2


  49 0008 20EE070A 		vmul.f32	s0, s0, s14	@ tmp117, tmp120, tmp118
  50              	.LVL1:
  51              	@ src/util.c:10: }
  10:src/util.c    **** }
  52              		.loc 1 10 1 view .LVU5
  53 000c 80EE270A 		vdiv.f32	s0, s0, s15	@, tmp117, tmp119
  54 0010 7047     		bx	lr	@
  55              	.L4:
  56 0012 00BF     		.align	2
  57              	.L3:
  58 0014 00003443 		.word	1127481344
  59 0018 DB0F4940 		.word	1078530011
  60              		.cfi_endproc
  61              	.LFE0:
  62              		.size	deg2rad, .-deg2rad
  63              		.section	.text.strrev,"ax",%progbits
  64              		.align	1
  65              		.p2align 4,,15
  66              		.global	strrev
  67              		.syntax unified
  68              		.thumb
  69              		.thumb_func
  70              		.type	strrev, %function
  71              	strrev:
  72              	.LVL2:
  73              	.LFB1:
  11:src/util.c    **** 
  12:src/util.c    **** 
  13:src/util.c    **** 
  14:src/util.c    **** // Convert INT to CHAR string with ITOA()
  15:src/util.c    **** 
  16:src/util.c    **** void strrev(char *arr, int start, int end)
  17:src/util.c    **** {
  74              		.loc 1 17 1 is_stmt 1 view -0
  75              		.cfi_startproc
  76              		@ args = 0, pretend = 0, frame = 0
  77              		@ frame_needed = 0, uses_anonymous_args = 0
  18:src/util.c    ****     char temp;
  78              		.loc 1 18 5 view .LVU7
  19:src/util.c    **** 
  20:src/util.c    ****     if (start >= end)
  79              		.loc 1 20 5 view .LVU8
  80              	@ src/util.c:20:     if (start >= end)
  81              		.loc 1 20 8 is_stmt 0 view .LVU9
  82 0000 9142     		cmp	r1, r2	@ start, end
  83 0002 16DA     		bge	.L10		@,
  84 0004 0139     		subs	r1, r1, #1	@ tmp137, start,
  85              	.LVL3:
  86              		.loc 1 20 8 view .LVU10
  87 0006 0132     		adds	r2, r2, #1	@ tmp138, end,
  88              	.LVL4:
  89              		.loc 1 20 8 view .LVU11
  90 0008 00EB010C 		add	ip, r0, r1	@ ivtmp.43, arr, tmp137
  91 000c 8118     		adds	r1, r0, r2	@ ivtmp.46, arr, tmp138
  92              	.LVL5:
  93              	@ src/util.c:17: {
  17:src/util.c    ****     char temp;
ARM GAS  /tmp/ccEAUEYM.s 			page 3


  94              		.loc 1 17 1 view .LVU12
  95 000e 10B5     		push	{r4, lr}	@
  96              	.LCFI0:
  97              		.cfi_def_cfa_offset 8
  98              		.cfi_offset 4, -8
  99              		.cfi_offset 14, -4
 100              	.LVL6:
 101              	.L8:
  21:src/util.c    ****         return;
  22:src/util.c    **** 
  23:src/util.c    ****     temp = *(arr + start);
 102              		.loc 1 23 5 is_stmt 1 view .LVU13
 103 0010 6246     		mov	r2, ip	@ ivtmp.43, ivtmp.43
 104 0012 0B46     		mov	r3, r1	@ ivtmp.46, ivtmp.46
 105              	@ src/util.c:23:     temp = *(arr + start);
 106              		.loc 1 23 10 is_stmt 0 view .LVU14
 107 0014 1CF801EF 		ldrb	lr, [ip, #1]!	@ zero_extendqisi2	@ temp, MEM[(char *)_31]
 108              	.LVL7:
  24:src/util.c    ****     *(arr + start) = *(arr + end);
 109              		.loc 1 24 5 is_stmt 1 view .LVU15
 110              	@ src/util.c:20:     if (start >= end)
  20:src/util.c    ****         return;
 111              		.loc 1 20 8 is_stmt 0 view .LVU16
 112 0018 0232     		adds	r2, r2, #2	@ tmp141, ivtmp.43,
 113 001a 023B     		subs	r3, r3, #2	@ tmp143, ivtmp.46,
 114              	@ src/util.c:24:     *(arr + start) = *(arr + end);
 115              		.loc 1 24 22 view .LVU17
 116 001c 11F8014D 		ldrb	r4, [r1, #-1]!	@ zero_extendqisi2	@ _7, MEM[(char *)_33]
 117              	@ src/util.c:20:     if (start >= end)
  20:src/util.c    ****         return;
 118              		.loc 1 20 8 view .LVU18
 119 0020 121A     		subs	r2, r2, r0	@ start, tmp141, arr
 120 0022 1B1A     		subs	r3, r3, r0	@ end, tmp143, arr
 121              	@ src/util.c:24:     *(arr + start) = *(arr + end);
 122              		.loc 1 24 20 view .LVU19
 123 0024 8CF80040 		strb	r4, [ip]	@ _7, MEM[(char *)_31]
  25:src/util.c    ****     *(arr + end) = temp;
 124              		.loc 1 25 5 is_stmt 1 view .LVU20
 125              	@ src/util.c:20:     if (start >= end)
  20:src/util.c    ****         return;
 126              		.loc 1 20 8 is_stmt 0 view .LVU21
 127 0028 9A42     		cmp	r2, r3	@ start, end
 128              	@ src/util.c:25:     *(arr + end) = temp;
 129              		.loc 1 25 18 view .LVU22
 130 002a 81F800E0 		strb	lr, [r1]	@ temp, MEM[(char *)_33]
  26:src/util.c    **** 
  27:src/util.c    ****     start++;
 131              		.loc 1 27 5 is_stmt 1 view .LVU23
 132              	.LVL8:
  28:src/util.c    ****     end--;
 133              		.loc 1 28 5 view .LVU24
  29:src/util.c    ****     strrev(arr, start, end);
 134              		.loc 1 29 5 view .LVU25
  18:src/util.c    **** 
 135              		.loc 1 18 5 view .LVU26
  20:src/util.c    ****         return;
 136              		.loc 1 20 5 view .LVU27
ARM GAS  /tmp/ccEAUEYM.s 			page 4


 137              	@ src/util.c:20:     if (start >= end)
  20:src/util.c    ****         return;
 138              		.loc 1 20 8 is_stmt 0 view .LVU28
 139 002e EFDB     		blt	.L8		@,
 140              	@ src/util.c:30: }
  30:src/util.c    **** }
 141              		.loc 1 30 1 view .LVU29
 142 0030 10BD     		pop	{r4, pc}	@
 143              	.LVL9:
 144              	.L10:
 145              	.LCFI1:
 146              		.cfi_def_cfa_offset 0
 147              		.cfi_restore 4
 148              		.cfi_restore 14
 149              		.loc 1 30 1 view .LVU30
 150 0032 7047     		bx	lr	@
 151              		.cfi_endproc
 152              	.LFE1:
 153              		.size	strrev, .-strrev
 154              		.section	.text.itoa,"ax",%progbits
 155              		.align	1
 156              		.p2align 4,,15
 157              		.global	itoa
 158              		.syntax unified
 159              		.thumb
 160              		.thumb_func
 161              		.type	itoa, %function
 162              	itoa:
 163              	.LVL10:
 164              	.LFB2:
  31:src/util.c    **** 
  32:src/util.c    **** char *itoa(int number, char *arr, int base)
  33:src/util.c    **** {
 165              		.loc 1 33 1 is_stmt 1 view -0
 166              		.cfi_startproc
 167              		@ args = 0, pretend = 0, frame = 0
 168              		@ frame_needed = 0, uses_anonymous_args = 0
  34:src/util.c    ****     int i = 0, r, negative = 0;
 169              		.loc 1 34 5 view .LVU32
  35:src/util.c    **** 
  36:src/util.c    ****     if (number == 0)
 170              		.loc 1 36 5 view .LVU33
 171              	@ src/util.c:33: {
  33:src/util.c    ****     int i = 0, r, negative = 0;
 172              		.loc 1 33 1 is_stmt 0 view .LVU34
 173 0000 0346     		mov	r3, r0	@ tmp185, number
 174 0002 0846     		mov	r0, r1	@ arr, tmp186
 175              	.LVL11:
 176              	@ src/util.c:36:     if (number == 0)
 177              		.loc 1 36 8 view .LVU35
 178 0004 002B     		cmp	r3, #0	@ number
 179 0006 42D0     		beq	.L35	@
  37:src/util.c    ****     {
  38:src/util.c    ****         arr[i] = '0';
  39:src/util.c    ****         arr[i + 1] = '\0';
  40:src/util.c    ****         return arr;
  41:src/util.c    ****     }
ARM GAS  /tmp/ccEAUEYM.s 			page 5


  42:src/util.c    ****     if (number < 0 && base == 10)
 180              		.loc 1 42 5 is_stmt 1 view .LVU36
 181              	@ src/util.c:42:     if (number < 0 && base == 10)
 182              		.loc 1 42 8 is_stmt 0 view .LVU37
 183 0008 0A2A     		cmp	r2, #10	@ base,
 184              	@ src/util.c:33: {
  33:src/util.c    ****     int i = 0, r, negative = 0;
 185              		.loc 1 33 1 view .LVU38
 186 000a F0B5     		push	{r4, r5, r6, r7, lr}	@
 187              	.LCFI2:
 188              		.cfi_def_cfa_offset 20
 189              		.cfi_offset 4, -20
 190              		.cfi_offset 5, -16
 191              		.cfi_offset 6, -12
 192              		.cfi_offset 7, -8
 193              		.cfi_offset 14, -4
 194              	@ src/util.c:42:     if (number < 0 && base == 10)
 195              		.loc 1 42 8 view .LVU39
 196 000c 3DD1     		bne	.L24		@,
 197 000e 002B     		cmp	r3, #0	@ number,
 198 0010 3BDA     		bge	.L24		@,
  43:src/util.c    ****     {
  44:src/util.c    ****         number *= -1;
 199              		.loc 1 44 9 is_stmt 1 view .LVU40
 200              	@ src/util.c:44:         number *= -1;
 201              		.loc 1 44 16 is_stmt 0 view .LVU41
 202 0012 5B42     		rsbs	r3, r3, #0	@ number, number
 203              	.LVL12:
  45:src/util.c    ****         negative = 1;
 204              		.loc 1 45 9 is_stmt 1 view .LVU42
  46:src/util.c    ****     }
  47:src/util.c    ****     while (number != 0)
 205              		.loc 1 47 19 view .LVU43
 206              	@ src/util.c:45:         negative = 1;
  45:src/util.c    ****         negative = 1;
 207              		.loc 1 45 18 is_stmt 0 view .LVU44
 208 0014 0126     		movs	r6, #1	@ negative,
 209              	.LVL13:
 210              	.L16:
  45:src/util.c    ****         negative = 1;
 211              		.loc 1 45 18 view .LVU45
 212 0016 00F1FF3E 		add	lr, r0, #-1	@ ivtmp.63, arr,
 213              	@ src/util.c:34:     int i = 0, r, negative = 0;
  34:src/util.c    **** 
 214              		.loc 1 34 19 view .LVU46
 215 001a 0021     		movs	r1, #0	@ prephitmp_9,
 216              	.LVL14:
  34:src/util.c    **** 
 217              		.loc 1 34 19 view .LVU47
 218 001c 7546     		mov	r5, lr	@ ivtmp.71, ivtmp.63
 219 001e 00E0     		b	.L19		@
 220              	.LVL15:
 221              	.L25:
 222              	@ src/util.c:51:         i++;
  48:src/util.c    ****     {
  49:src/util.c    ****         r = number % base;
  50:src/util.c    ****         arr[i] = (r > 9) ? (r - 10) + 'a' : r + '0';
ARM GAS  /tmp/ccEAUEYM.s 			page 6


  51:src/util.c    ****         i++;
 223              		.loc 1 51 10 view .LVU48
 224 0020 6146     		mov	r1, ip	@ prephitmp_9, tmp184
 225              	.LVL16:
 226              	.L19:
  49:src/util.c    ****         arr[i] = (r > 9) ? (r - 10) + 'a' : r + '0';
 227              		.loc 1 49 9 is_stmt 1 view .LVU49
 228              	@ src/util.c:49:         r = number % base;
  49:src/util.c    ****         arr[i] = (r > 9) ? (r - 10) + 'a' : r + '0';
 229              		.loc 1 49 11 is_stmt 0 view .LVU50
 230 0022 93FBF2F7 		sdiv	r7, r3, r2	@ number, number, base
 231              	.LVL17:
  49:src/util.c    ****         arr[i] = (r > 9) ? (r - 10) + 'a' : r + '0';
 232              		.loc 1 49 11 view .LVU51
 233 0026 02FB1733 		mls	r3, r2, r7, r3	@ r, base, number, number
 234              	.LVL18:
  50:src/util.c    ****         i++;
 235              		.loc 1 50 9 is_stmt 1 view .LVU52
 236              	@ src/util.c:50:         arr[i] = (r > 9) ? (r - 10) + 'a' : r + '0';
  50:src/util.c    ****         i++;
 237              		.loc 1 50 37 is_stmt 0 view .LVU53
 238 002a 5FFA83FC 		uxtb	ip, r3	@ _58, r
 239              	@ src/util.c:50:         arr[i] = (r > 9) ? (r - 10) + 'a' : r + '0';
  50:src/util.c    ****         i++;
 240              		.loc 1 50 16 view .LVU54
 241 002e 092B     		cmp	r3, #9	@ r,
 242              	@ src/util.c:52:         number /= base;
  52:src/util.c    ****         number /= base;
 243              		.loc 1 52 16 view .LVU55
 244 0030 3B46     		mov	r3, r7	@ number, number
 245              	@ src/util.c:50:         arr[i] = (r > 9) ? (r - 10) + 'a' : r + '0';
  50:src/util.c    ****         i++;
 246              		.loc 1 50 16 view .LVU56
 247 0032 0CF13004 		add	r4, ip, #48	@ tmp168, _58,
 248 0036 0CF1570C 		add	ip, ip, #87	@ tmp167, _58,
 249 003a D4BF     		ite	le
 250 003c E4B2     		uxtble	r4, r4	@ iftmp.6_48, tmp168
 251 003e 5FFA8CF4 		uxtbgt	r4, ip	@ iftmp.6_48, tmp167
 252              	@ src/util.c:51:         i++;
  51:src/util.c    ****         number /= base;
 253              		.loc 1 51 10 view .LVU57
 254 0042 01F1010C 		add	ip, r1, #1	@ tmp184, prephitmp_9,
 255              	.LVL19:
 256              	@ src/util.c:50:         arr[i] = (r > 9) ? (r - 10) + 'a' : r + '0';
  50:src/util.c    ****         i++;
 257              		.loc 1 50 16 view .LVU58
 258 0046 05F8014F 		strb	r4, [r5, #1]!	@ iftmp.6_48, MEM[(char *)_81]
  51:src/util.c    ****         number /= base;
 259              		.loc 1 51 9 is_stmt 1 view .LVU59
 260              	@ src/util.c:51:         i++;
  51:src/util.c    ****         number /= base;
 261              		.loc 1 51 10 is_stmt 0 view .LVU60
 262 004a 6446     		mov	r4, ip	@ i, tmp184
 263              		.loc 1 52 9 is_stmt 1 view .LVU61
 264              	.LVL20:
  47:src/util.c    ****     {
 265              		.loc 1 47 19 view .LVU62
ARM GAS  /tmp/ccEAUEYM.s 			page 7


 266 004c 002F     		cmp	r7, #0	@ number
 267 004e E7D1     		bne	.L25	@
  53:src/util.c    ****     }
  54:src/util.c    ****     if (negative)
 268              		.loc 1 54 5 view .LVU63
 269              	@ src/util.c:54:     if (negative)
 270              		.loc 1 54 8 is_stmt 0 view .LVU64
 271 0050 06B3     		cbz	r6, .L20	@ negative,
  55:src/util.c    ****     {
  56:src/util.c    ****         arr[i] = '-';
 272              		.loc 1 56 9 is_stmt 1 view .LVU65
 273              	@ src/util.c:56:         arr[i] = '-';
 274              		.loc 1 56 16 is_stmt 0 view .LVU66
 275 0052 2D23     		movs	r3, #45	@ tmp170,
 276              	@ src/util.c:57:         i++;
  57:src/util.c    ****         i++;
 277              		.loc 1 57 10 view .LVU67
 278 0054 8C1C     		adds	r4, r1, #2	@ i, prephitmp_9,
 279              	@ src/util.c:51:         i++;
  51:src/util.c    ****         number /= base;
 280              		.loc 1 51 10 view .LVU68
 281 0056 6146     		mov	r1, ip	@ prephitmp_9, tmp184
 282              	@ src/util.c:56:         arr[i] = '-';
  56:src/util.c    ****         i++;
 283              		.loc 1 56 16 view .LVU69
 284 0058 00F80C30 		strb	r3, [r0, ip]	@ tmp170, *_54
 285              		.loc 1 57 9 is_stmt 1 view .LVU70
 286              	.LVL21:
  58:src/util.c    ****     }
  59:src/util.c    ****     strrev(arr, 0, i - 1);
 287              		.loc 1 59 5 view .LVU71
 288              	.LBB6:
 289              	.LBI6:
  16:src/util.c    **** {
 290              		.loc 1 16 6 view .LVU72
 291              	.LBB7:
  18:src/util.c    **** 
 292              		.loc 1 18 5 view .LVU73
  20:src/util.c    ****         return;
 293              		.loc 1 20 5 view .LVU74
 294 005c 0CF1010C 		add	ip, ip, #1	@ tmp184, prephitmp_9,
 295              	.LVL22:
 296              	.L21:
  20:src/util.c    ****         return;
 297              		.loc 1 20 5 is_stmt 0 view .LVU75
 298 0060 8444     		add	ip, ip, r0	@ ivtmp.66, arr
 299              	.LVL23:
 300              	.L23:
  23:src/util.c    ****     *(arr + start) = *(arr + end);
 301              		.loc 1 23 5 is_stmt 1 view .LVU76
 302 0062 7246     		mov	r2, lr	@ ivtmp.63, ivtmp.63
 303              	@ src/util.c:23:     temp = *(arr + start);
  23:src/util.c    ****     *(arr + start) = *(arr + end);
 304              		.loc 1 23 10 is_stmt 0 view .LVU77
 305 0064 1EF8015F 		ldrb	r5, [lr, #1]!	@ zero_extendqisi2	@ temp, MEM[(char *)_6]
 306              	.LVL24:
  24:src/util.c    ****     *(arr + end) = temp;
ARM GAS  /tmp/ccEAUEYM.s 			page 8


 307              		.loc 1 24 5 is_stmt 1 view .LVU78
 308              	@ src/util.c:24:     *(arr + start) = *(arr + end);
  24:src/util.c    ****     *(arr + end) = temp;
 309              		.loc 1 24 22 is_stmt 0 view .LVU79
 310 0068 1CF8016D 		ldrb	r6, [ip, #-1]!	@ zero_extendqisi2	@ _44, MEM[(char *)_32]
 311              	@ src/util.c:20:     if (start >= end)
  20:src/util.c    ****         return;
 312              		.loc 1 20 8 view .LVU80
 313 006c A0EB0E03 		sub	r3, r0, lr	@ tmp179, arr, ivtmp.63
 314 0070 0232     		adds	r2, r2, #2	@ tmp177, ivtmp.63,
 315              	@ src/util.c:24:     *(arr + start) = *(arr + end);
  24:src/util.c    ****     *(arr + end) = temp;
 316              		.loc 1 24 20 view .LVU81
 317 0072 8EF80060 		strb	r6, [lr]	@ _44, MEM[(char *)_6]
  25:src/util.c    **** 
 318              		.loc 1 25 5 is_stmt 1 view .LVU82
 319              	@ src/util.c:20:     if (start >= end)
  20:src/util.c    ****         return;
 320              		.loc 1 20 8 is_stmt 0 view .LVU83
 321 0076 013B     		subs	r3, r3, #1	@ tmp180, tmp179,
 322 0078 121A     		subs	r2, r2, r0	@ start, tmp177, arr
 323              	@ src/util.c:25:     *(arr + end) = temp;
  25:src/util.c    **** 
 324              		.loc 1 25 18 view .LVU84
 325 007a 8CF80050 		strb	r5, [ip]	@ temp, MEM[(char *)_32]
  27:src/util.c    ****     end--;
 326              		.loc 1 27 5 is_stmt 1 view .LVU85
 327              	.LVL25:
  28:src/util.c    ****     strrev(arr, start, end);
 328              		.loc 1 28 5 view .LVU86
  29:src/util.c    **** }
 329              		.loc 1 29 5 view .LVU87
  18:src/util.c    **** 
 330              		.loc 1 18 5 view .LVU88
  20:src/util.c    ****         return;
 331              		.loc 1 20 5 view .LVU89
 332              	@ src/util.c:20:     if (start >= end)
  20:src/util.c    ****         return;
 333              		.loc 1 20 8 is_stmt 0 view .LVU90
 334 007e 0B44     		add	r3, r3, r1	@ end, prephitmp_9
 335 0080 9A42     		cmp	r2, r3	@ start, end
 336 0082 EEDB     		blt	.L23		@,
 337              	.LVL26:
 338              	.L22:
  21:src/util.c    **** 
 339              		.loc 1 21 9 is_stmt 1 view .LVU91
  21:src/util.c    **** 
 340              		.loc 1 21 9 is_stmt 0 view .LVU92
 341              	.LBE7:
 342              	.LBE6:
  60:src/util.c    ****     arr[i] = '\0';
 343              		.loc 1 60 5 is_stmt 1 view .LVU93
 344              	@ src/util.c:60:     arr[i] = '\0';
 345              		.loc 1 60 12 is_stmt 0 view .LVU94
 346 0084 0023     		movs	r3, #0	@ tmp172,
 347 0086 0355     		strb	r3, [r0, r4]	@ tmp172, *_12
  61:src/util.c    ****     return arr;
ARM GAS  /tmp/ccEAUEYM.s 			page 9


 348              		.loc 1 61 5 is_stmt 1 view .LVU95
 349              	@ src/util.c:62: }
  62:src/util.c    **** }
 350              		.loc 1 62 1 is_stmt 0 view .LVU96
 351 0088 F0BD     		pop	{r4, r5, r6, r7, pc}	@
 352              	.LVL27:
 353              	.L24:
 354              	@ src/util.c:34:     int i = 0, r, negative = 0;
  34:src/util.c    **** 
 355              		.loc 1 34 19 view .LVU97
 356 008a 0026     		movs	r6, #0	@ negative,
 357 008c C3E7     		b	.L16		@
 358              	.L35:
 359              	.LCFI3:
 360              		.cfi_def_cfa_offset 0
 361              		.cfi_restore 4
 362              		.cfi_restore 5
 363              		.cfi_restore 6
 364              		.cfi_restore 7
 365              		.cfi_restore 14
  38:src/util.c    ****         arr[i + 1] = '\0';
 366              		.loc 1 38 9 is_stmt 1 view .LVU98
  39:src/util.c    ****         return arr;
 367              		.loc 1 39 9 view .LVU99
 368              	@ src/util.c:38:         arr[i] = '0';
  38:src/util.c    ****         arr[i + 1] = '\0';
 369              		.loc 1 38 16 is_stmt 0 view .LVU100
 370 008e 3023     		movs	r3, #48	@ tmp153,
 371              	.LVL28:
  38:src/util.c    ****         arr[i + 1] = '\0';
 372              		.loc 1 38 16 view .LVU101
 373 0090 0B80     		strh	r3, [r1]	@ unaligned	@ tmp153, MEM <vector(2) char> [(char *)arr_25(D)]
  40:src/util.c    ****     }
 374              		.loc 1 40 9 is_stmt 1 view .LVU102
 375              	@ src/util.c:62: }
 376              		.loc 1 62 1 is_stmt 0 view .LVU103
 377 0092 7047     		bx	lr	@
 378              	.LVL29:
 379              	.L20:
 380              	.LCFI4:
 381              		.cfi_def_cfa_offset 20
 382              		.cfi_offset 4, -20
 383              		.cfi_offset 5, -16
 384              		.cfi_offset 6, -12
 385              		.cfi_offset 7, -8
 386              		.cfi_offset 14, -4
  59:src/util.c    ****     arr[i] = '\0';
 387              		.loc 1 59 5 is_stmt 1 view .LVU104
 388              	.LBB9:
  16:src/util.c    **** {
 389              		.loc 1 16 6 view .LVU105
 390              	.LBB8:
  18:src/util.c    **** 
 391              		.loc 1 18 5 view .LVU106
  20:src/util.c    ****         return;
 392              		.loc 1 20 5 view .LVU107
 393              	@ src/util.c:20:     if (start >= end)
ARM GAS  /tmp/ccEAUEYM.s 			page 10


  20:src/util.c    ****         return;
 394              		.loc 1 20 8 is_stmt 0 view .LVU108
 395 0094 0029     		cmp	r1, #0	@ prephitmp_9
 396 0096 E3D1     		bne	.L21	@
 397 0098 F4E7     		b	.L22		@
 398              	.LBE8:
 399              	.LBE9:
 400              		.cfi_endproc
 401              	.LFE2:
 402              		.size	itoa, .-itoa
 403 009a 00BF     		.section	.text.reverse,"ax",%progbits
 404              		.align	1
 405              		.p2align 4,,15
 406              		.global	reverse
 407              		.syntax unified
 408              		.thumb
 409              		.thumb_func
 410              		.type	reverse, %function
 411              	reverse:
 412              	.LVL30:
 413              	.LFB3:
  63:src/util.c    **** 
  64:src/util.c    **** 
  65:src/util.c    **** // Convert FLOAT to CHAR string with FTOA()
  66:src/util.c    **** 
  67:src/util.c    **** void reverse(char* str, int len)
  68:src/util.c    **** {
 414              		.loc 1 68 1 is_stmt 1 view -0
 415              		.cfi_startproc
 416              		@ args = 0, pretend = 0, frame = 0
 417              		@ frame_needed = 0, uses_anonymous_args = 0
  69:src/util.c    ****     int i = 0, j = len - 1, temp;
 418              		.loc 1 69 5 view .LVU110
  70:src/util.c    ****     while (i < j) {
 419              		.loc 1 70 5 view .LVU111
 420              		.loc 1 70 14 view .LVU112
 421 0000 0129     		cmp	r1, #1	@ len,
 422 0002 18DD     		ble	.L41		@,
 423 0004 00F1FF3C 		add	ip, r0, #-1	@ ivtmp.83, str,
 424              	@ src/util.c:68: {
  68:src/util.c    ****     int i = 0, j = len - 1, temp;
 425              		.loc 1 68 1 is_stmt 0 view .LVU113
 426 0008 70B5     		push	{r4, r5, r6, lr}	@
 427              	.LCFI5:
 428              		.cfi_def_cfa_offset 16
 429              		.cfi_offset 4, -16
 430              		.cfi_offset 5, -12
 431              		.cfi_offset 6, -8
 432              		.cfi_offset 14, -4
 433 000a 00EB010E 		add	lr, r0, r1	@ ivtmp.87, str, len
 434              	@ src/util.c:70:     while (i < j) {
 435              		.loc 1 70 14 view .LVU114
 436 000e 6FF00106 		mvn	r6, #1	@ tmp137,
 437              	.LVL31:
 438              	.L38:
  71:src/util.c    ****         temp = str[i];
 439              		.loc 1 71 9 is_stmt 1 view .LVU115
ARM GAS  /tmp/ccEAUEYM.s 			page 11


 440 0012 6246     		mov	r2, ip	@ ivtmp.83, ivtmp.83
 441              	@ src/util.c:71:         temp = str[i];
 442              		.loc 1 71 19 is_stmt 0 view .LVU116
 443 0014 1CF8014F 		ldrb	r4, [ip, #1]!	@ zero_extendqisi2	@ _3, MEM[(char *)_28]
 444              	.LVL32:
  72:src/util.c    ****         str[i] = str[j];
 445              		.loc 1 72 9 is_stmt 1 view .LVU117
 446              	@ src/util.c:72:         str[i] = str[j];
 447              		.loc 1 72 21 is_stmt 0 view .LVU118
 448 0018 1EF8015D 		ldrb	r5, [lr, #-1]!	@ zero_extendqisi2	@ _6, MEM[(char *)_30]
 449              	@ src/util.c:70:     while (i < j) {
  70:src/util.c    ****         temp = str[i];
 450              		.loc 1 70 14 view .LVU119
 451 001c A6EB0C03 		sub	r3, r6, ip	@ tmp138, tmp137, ivtmp.83
 452 0020 0232     		adds	r2, r2, #2	@ tmp135, ivtmp.83,
 453              	.LVL33:
 454              	@ src/util.c:72:         str[i] = str[j];
 455              		.loc 1 72 16 view .LVU120
 456 0022 8CF80050 		strb	r5, [ip]	@ _6, MEM[(char *)_28]
  73:src/util.c    ****         str[j] = temp;
 457              		.loc 1 73 9 is_stmt 1 view .LVU121
 458              	@ src/util.c:70:     while (i < j) {
  70:src/util.c    ****         temp = str[i];
 459              		.loc 1 70 14 is_stmt 0 view .LVU122
 460 0026 0344     		add	r3, r3, r0	@ tmp139, str
 461 0028 121A     		subs	r2, r2, r0	@ i, tmp135, str
 462              	.LVL34:
 463              	@ src/util.c:73:         str[j] = temp;
 464              		.loc 1 73 16 view .LVU123
 465 002a 8EF80040 		strb	r4, [lr]	@ _3, MEM[(char *)_30]
  74:src/util.c    ****         i++;
 466              		.loc 1 74 9 is_stmt 1 view .LVU124
 467              	.LVL35:
  75:src/util.c    ****         j--;
 468              		.loc 1 75 9 view .LVU125
  70:src/util.c    ****         temp = str[i];
 469              		.loc 1 70 14 view .LVU126
 470 002e 0B44     		add	r3, r3, r1	@ j, len
 471 0030 9A42     		cmp	r2, r3	@ i, j
 472 0032 EEDB     		blt	.L38		@,
 473              	@ src/util.c:77: }
  76:src/util.c    ****     }
  77:src/util.c    **** }
 474              		.loc 1 77 1 is_stmt 0 view .LVU127
 475 0034 70BD     		pop	{r4, r5, r6, pc}	@
 476              	.LVL36:
 477              	.L41:
 478              	.LCFI6:
 479              		.cfi_def_cfa_offset 0
 480              		.cfi_restore 4
 481              		.cfi_restore 5
 482              		.cfi_restore 6
 483              		.cfi_restore 14
 484              		.loc 1 77 1 view .LVU128
 485 0036 7047     		bx	lr	@
 486              		.cfi_endproc
 487              	.LFE3:
ARM GAS  /tmp/ccEAUEYM.s 			page 12


 488              		.size	reverse, .-reverse
 489              		.section	.text.intToStr,"ax",%progbits
 490              		.align	1
 491              		.p2align 4,,15
 492              		.global	intToStr
 493              		.syntax unified
 494              		.thumb
 495              		.thumb_func
 496              		.type	intToStr, %function
 497              	intToStr:
 498              	.LVL37:
 499              	.LFB4:
  78:src/util.c    **** 
  79:src/util.c    **** int intToStr(int x, char str[], int d)
  80:src/util.c    **** {
 500              		.loc 1 80 1 is_stmt 1 view -0
 501              		.cfi_startproc
 502              		@ args = 0, pretend = 0, frame = 0
 503              		@ frame_needed = 0, uses_anonymous_args = 0
  81:src/util.c    ****     int i = 0;
 504              		.loc 1 81 5 view .LVU130
  82:src/util.c    ****     while (x) {
 505              		.loc 1 82 5 view .LVU131
 506              		.loc 1 82 12 view .LVU132
 507              	@ src/util.c:80: {
  80:src/util.c    ****     int i = 0;
 508              		.loc 1 80 1 is_stmt 0 view .LVU133
 509 0000 F8B5     		push	{r3, r4, r5, r6, r7, lr}	@
 510              	.LCFI7:
 511              		.cfi_def_cfa_offset 24
 512              		.cfi_offset 3, -24
 513              		.cfi_offset 4, -20
 514              		.cfi_offset 5, -16
 515              		.cfi_offset 6, -12
 516              		.cfi_offset 7, -8
 517              		.cfi_offset 14, -4
 518              	@ src/util.c:80: {
  80:src/util.c    ****     int i = 0;
 519              		.loc 1 80 1 view .LVU134
 520 0002 0C46     		mov	r4, r1	@ str, tmp193
 521 0004 1646     		mov	r6, r2	@ d, tmp194
 522              	@ src/util.c:82:     while (x) {
 523              		.loc 1 82 12 view .LVU135
 524 0006 0028     		cmp	r0, #0	@ x
 525 0008 43D0     		beq	.L45	@
 526 000a 4A1E     		subs	r2, r1, #1	@ ivtmp.110, str,
 527              	.LVL38:
 528              	@ src/util.c:81:     int i = 0;
  81:src/util.c    ****     int i = 0;
 529              		.loc 1 81 9 view .LVU136
 530 000c 0025     		movs	r5, #0	@ i,
 531              	@ src/util.c:83:         str[i++] = (x % 10) + '0';
  83:src/util.c    ****         str[i++] = (x % 10) + '0';
 532              		.loc 1 83 23 view .LVU137
 533 000e 254F     		ldr	r7, .L61	@ tmp158,
 534              	.LVL39:
 535              	.L46:
ARM GAS  /tmp/ccEAUEYM.s 			page 13


 536              		.loc 1 83 9 is_stmt 1 view .LVU138
 537              	@ src/util.c:83:         str[i++] = (x % 10) + '0';
 538              		.loc 1 83 23 is_stmt 0 view .LVU139
 539 0010 87FB0013 		smull	r1, r3, r7, r0	@ tmp195, tmp157, tmp158, x
 540 0014 C117     		asrs	r1, r0, #31	@ tmp160, x,
 541 0016 AC46     		mov	ip, r5	@ i, i
 542              	@ src/util.c:83:         str[i++] = (x % 10) + '0';
 543              		.loc 1 83 14 view .LVU140
 544 0018 0135     		adds	r5, r5, #1	@ i, i,
 545              	.LVL40:
 546              	@ src/util.c:83:         str[i++] = (x % 10) + '0';
 547              		.loc 1 83 23 view .LVU141
 548 001a C1EBA301 		rsb	r1, r1, r3, asr #2	@ tmp156, tmp160, tmp157,
 549 001e 01EB8103 		add	r3, r1, r1, lsl #2	@ tmp163, tmp156, tmp156,
 550 0022 A0EB4303 		sub	r3, r0, r3, lsl #1	@ tmp165, x, tmp163,
 551              	@ src/util.c:82:     while (x) {
  82:src/util.c    ****     while (x) {
 552              		.loc 1 82 12 view .LVU142
 553 0026 0846     		mov	r0, r1	@ x, tmp156
 554              	.LVL41:
 555              	@ src/util.c:83:         str[i++] = (x % 10) + '0';
 556              		.loc 1 83 29 view .LVU143
 557 0028 3033     		adds	r3, r3, #48	@ tmp167, tmp165,
 558              	@ src/util.c:83:         str[i++] = (x % 10) + '0';
 559              		.loc 1 83 18 view .LVU144
 560 002a 02F8013F 		strb	r3, [r2, #1]!	@ tmp167, MEM[(char *)_92]
  84:src/util.c    ****         x = x / 10;
 561              		.loc 1 84 9 is_stmt 1 view .LVU145
 562              	.LVL42:
  82:src/util.c    ****         str[i++] = (x % 10) + '0';
 563              		.loc 1 82 12 view .LVU146
 564 002e 0029     		cmp	r1, #0	@ x
 565 0030 EED1     		bne	.L46	@
  85:src/util.c    ****     }
  86:src/util.c    ****     while (i < d) {
 566              		.loc 1 86 14 view .LVU147
 567 0032 AE42     		cmp	r6, r5	@ d, i
 568 0034 31DD     		ble	.L59		@,
 569              	.LVL43:
 570              	.L48:
 571              	@ src/util.c:87:         str[i++] = '0';
  87:src/util.c    ****         str[i++] = '0';
 572              		.loc 1 87 18 is_stmt 0 view .LVU148
 573 0036 721B     		subs	r2, r6, r5	@ tmp177, d, i
 574 0038 3021     		movs	r1, #48	@,
 575 003a 6019     		adds	r0, r4, r5	@, str, i
 576              	.LVL44:
 577              		.loc 1 87 18 view .LVU149
 578 003c AE42     		cmp	r6, r5	@ d, i
 579 003e D8BF     		it	le		@
 580 0040 0122     		movle	r2, #1	@,,
 581 0042 FFF7FEFF 		bl	memset		@
 582              	.LVL45:
 583 0046 06F1FF3C 		add	ip, r6, #-1	@ tmp180, d,
 584 004a 681C     		adds	r0, r5, #1	@ _60, i,
 585 004c ACEB050C 		sub	ip, ip, r5	@ tmp179, tmp180, i
 586 0050 AE42     		cmp	r6, r5	@ d, i
ARM GAS  /tmp/ccEAUEYM.s 			page 14


 587 0052 D8BF     		it	le		@
 588 0054 4FF0000C 		movle	ip, #0	@, tmp179,
 589              	@ src/util.c:87:         str[i++] = '0';
 590              		.loc 1 87 14 view .LVU150
 591 0058 6044     		add	r0, r0, ip	@ <retval>, tmp179
 592 005a AC44     		add	ip, ip, r5	@ i, i
 593              	.LVL46:
 594              	.L50:
  88:src/util.c    ****     }
  89:src/util.c    ****     reverse(str, i);
 595              		.loc 1 89 5 is_stmt 1 view .LVU151
 596              	.LBB12:
 597              	.LBI12:
  67:src/util.c    **** {
 598              		.loc 1 67 6 view .LVU152
 599              	.LBB13:
  69:src/util.c    ****     while (i < j) {
 600              		.loc 1 69 5 view .LVU153
  70:src/util.c    ****         temp = str[i];
 601              		.loc 1 70 5 view .LVU154
  70:src/util.c    ****         temp = str[i];
 602              		.loc 1 70 14 view .LVU155
 603 005c BCF1000F 		cmp	ip, #0	@ i,
 604              	.LBE13:
 605              	.LBE12:
 606              	@ src/util.c:90:     str[i] = '\0';
  90:src/util.c    ****     str[i] = '\0';
 607              		.loc 1 90 8 is_stmt 0 view .LVU156
 608 0060 04EB0006 		add	r6, r4, r0	@ prephitmp_79, str, <retval>
 609              	.LVL47:
 610              	.LBB15:
 611              	.LBB14:
 612              	@ src/util.c:70:     while (i < j) {
  70:src/util.c    ****         temp = str[i];
 613              		.loc 1 70 14 view .LVU157
 614 0064 12DD     		ble	.L49		@,
 615 0066 0CF10105 		add	r5, ip, #1	@ tmp181, i,
 616 006a 611E     		subs	r1, r4, #1	@ ivtmp.102, str,
 617 006c 2544     		add	r5, r5, r4	@ ivtmp.105, str
 618              	.LVL48:
 619              	.L52:
  71:src/util.c    ****         str[i] = str[j];
 620              		.loc 1 71 9 is_stmt 1 view .LVU158
 621 006e 0B46     		mov	r3, r1	@ ivtmp.102, ivtmp.102
 622              	@ src/util.c:71:         temp = str[i];
  71:src/util.c    ****         str[i] = str[j];
 623              		.loc 1 71 19 is_stmt 0 view .LVU159
 624 0070 11F801EF 		ldrb	lr, [r1, #1]!	@ zero_extendqisi2	@ _31, MEM[(char *)_66]
 625              	.LVL49:
  72:src/util.c    ****         str[j] = temp;
 626              		.loc 1 72 9 is_stmt 1 view .LVU160
 627              	@ src/util.c:72:         str[i] = str[j];
  72:src/util.c    ****         str[j] = temp;
 628              		.loc 1 72 21 is_stmt 0 view .LVU161
 629 0074 15F8017D 		ldrb	r7, [r5, #-1]!	@ zero_extendqisi2	@ _35, MEM[(char *)_69]
 630              	@ src/util.c:70:     while (i < j) {
  70:src/util.c    ****         temp = str[i];
ARM GAS  /tmp/ccEAUEYM.s 			page 15


 631              		.loc 1 70 14 view .LVU162
 632 0078 621A     		subs	r2, r4, r1	@ tmp184, str, ivtmp.102
 633 007a 0233     		adds	r3, r3, #2	@ tmp187, ivtmp.102,
 634              	.LVL50:
 635              	@ src/util.c:72:         str[i] = str[j];
  72:src/util.c    ****         str[j] = temp;
 636              		.loc 1 72 16 view .LVU163
 637 007c 0F70     		strb	r7, [r1]	@ _35, MEM[(char *)_66]
  73:src/util.c    ****         i++;
 638              		.loc 1 73 9 is_stmt 1 view .LVU164
 639              	@ src/util.c:70:     while (i < j) {
  70:src/util.c    ****         temp = str[i];
 640              		.loc 1 70 14 is_stmt 0 view .LVU165
 641 007e 013A     		subs	r2, r2, #1	@ tmp185, tmp184,
 642 0080 1B1B     		subs	r3, r3, r4	@ i, tmp187, str
 643              	.LVL51:
 644              	@ src/util.c:73:         str[j] = temp;
  73:src/util.c    ****         i++;
 645              		.loc 1 73 16 view .LVU166
 646 0082 85F800E0 		strb	lr, [r5]	@ _31, MEM[(char *)_69]
  74:src/util.c    ****         j--;
 647              		.loc 1 74 9 is_stmt 1 view .LVU167
 648              	.LVL52:
  75:src/util.c    ****     }
 649              		.loc 1 75 9 view .LVU168
  70:src/util.c    ****         temp = str[i];
 650              		.loc 1 70 14 view .LVU169
 651 0086 6244     		add	r2, r2, ip	@ j, i
 652 0088 9A42     		cmp	r2, r3	@ j, i
 653 008a F0DC     		bgt	.L52		@,
 654              	.LVL53:
 655              	.L49:
  70:src/util.c    ****         temp = str[i];
 656              		.loc 1 70 14 is_stmt 0 view .LVU170
 657              	.LBE14:
 658              	.LBE15:
 659              		.loc 1 90 5 is_stmt 1 view .LVU171
 660              	@ src/util.c:90:     str[i] = '\0';
 661              		.loc 1 90 12 is_stmt 0 view .LVU172
 662 008c 0023     		movs	r3, #0	@ tmp189,
 663 008e 3370     		strb	r3, [r6]	@ tmp189, *prephitmp_79
  91:src/util.c    ****     return i;
 664              		.loc 1 91 5 is_stmt 1 view .LVU173
 665              	@ src/util.c:92: }
  92:src/util.c    **** }
 666              		.loc 1 92 1 is_stmt 0 view .LVU174
 667 0090 F8BD     		pop	{r3, r4, r5, r6, r7, pc}	@
 668              	.LVL54:
 669              	.L45:
  86:src/util.c    ****         str[i++] = '0';
 670              		.loc 1 86 14 is_stmt 1 view .LVU175
 671 0092 002A     		cmp	r2, #0	@ d,
 672 0094 03DD     		ble	.L60		@,
 673              	@ src/util.c:81:     int i = 0;
  81:src/util.c    ****     while (x) {
 674              		.loc 1 81 9 is_stmt 0 view .LVU176
 675 0096 0546     		mov	r5, r0	@ i, x
ARM GAS  /tmp/ccEAUEYM.s 			page 16


 676 0098 CDE7     		b	.L48		@
 677              	.LVL55:
 678              	.L59:
 679              	@ src/util.c:83:         str[i++] = (x % 10) + '0';
  83:src/util.c    ****         x = x / 10;
 680              		.loc 1 83 14 view .LVU177
 681 009a 2846     		mov	r0, r5	@ <retval>, i
 682              	.LVL56:
  83:src/util.c    ****         x = x / 10;
 683              		.loc 1 83 14 view .LVU178
 684 009c DEE7     		b	.L50		@
 685              	.LVL57:
 686              	.L60:
 687              	@ src/util.c:86:     while (i < d) {
  86:src/util.c    ****         str[i++] = '0';
 688              		.loc 1 86 14 view .LVU179
 689 009e 0E46     		mov	r6, r1	@ prephitmp_79, str
 690 00a0 F4E7     		b	.L49		@
 691              	.L62:
 692 00a2 00BF     		.align	2
 693              	.L61:
 694 00a4 67666666 		.word	1717986919
 695              		.cfi_endproc
 696              	.LFE4:
 697              		.size	intToStr, .-intToStr
 698              		.global	__aeabi_i2d
 699              		.global	__aeabi_f2d
 700              		.global	__aeabi_dmul
 701              		.global	__aeabi_d2f
 702              		.section	.text.ftoa,"ax",%progbits
 703              		.align	1
 704              		.p2align 4,,15
 705              		.global	ftoa
 706              		.syntax unified
 707              		.thumb
 708              		.thumb_func
 709              		.type	ftoa, %function
 710              	ftoa:
 711              	.LVL58:
 712              	.LFB5:
  93:src/util.c    **** 
  94:src/util.c    **** void ftoa(float n, char* res, int afterpoint)
  95:src/util.c    **** {
 713              		.loc 1 95 1 is_stmt 1 view -0
 714              		.cfi_startproc
 715              		@ args = 0, pretend = 0, frame = 0
 716              		@ frame_needed = 0, uses_anonymous_args = 0
  96:src/util.c    ****     int ipart = (int)n;
 717              		.loc 1 96 5 view .LVU181
 718              	@ src/util.c:95: {
  95:src/util.c    ****     int ipart = (int)n;
 719              		.loc 1 95 1 is_stmt 0 view .LVU182
 720 0000 2DE97043 		push	{r4, r5, r6, r8, r9, lr}	@
 721              	.LCFI8:
 722              		.cfi_def_cfa_offset 24
 723              		.cfi_offset 4, -24
 724              		.cfi_offset 5, -20
ARM GAS  /tmp/ccEAUEYM.s 			page 17


 725              		.cfi_offset 6, -16
 726              		.cfi_offset 8, -12
 727              		.cfi_offset 9, -8
 728              		.cfi_offset 14, -4
 729 0004 2DED028B 		vpush.64	{d8}	@
 730              	.LCFI9:
 731              		.cfi_def_cfa_offset 32
 732              		.cfi_offset 80, -32
 733              		.cfi_offset 81, -28
 734              	@ src/util.c:96:     int ipart = (int)n;
 735              		.loc 1 96 9 view .LVU183
 736 0008 FDEEC08A 		vcvt.s32.f32	s17, s0	@ ipart, n
 737              	.LVL59:
  97:src/util.c    ****     float fpart = n - (float)ipart;
 738              		.loc 1 97 5 is_stmt 1 view .LVU184
 739              	@ src/util.c:95: {
  95:src/util.c    ****     int ipart = (int)n;
 740              		.loc 1 95 1 is_stmt 0 view .LVU185
 741 000c 0D46     		mov	r5, r1	@ afterpoint, tmp144
 742 000e 0446     		mov	r4, r0	@ res, tmp143
 743              	@ src/util.c:98:     int i = intToStr(ipart, res, 0);
  98:src/util.c    ****     int i = intToStr(ipart, res, 0);
 744              		.loc 1 98 13 view .LVU186
 745 0010 0146     		mov	r1, r0	@, res
 746              	.LVL60:
 747              		.loc 1 98 13 view .LVU187
 748 0012 0022     		movs	r2, #0	@,
 749              	@ src/util.c:95: {
  95:src/util.c    ****     int ipart = (int)n;
 750              		.loc 1 95 1 view .LVU188
 751 0014 B0EE408A 		vmov.f32	s16, s0	@ n, tmp142
 752              	.LVL61:
 753              		.loc 1 98 5 is_stmt 1 view .LVU189
 754              	@ src/util.c:98:     int i = intToStr(ipart, res, 0);
 755              		.loc 1 98 13 is_stmt 0 view .LVU190
 756 0018 18EE900A 		vmov	r0, s17	@ int	@, ipart
 757              	.LVL62:
 758              		.loc 1 98 13 view .LVU191
 759 001c FFF7FEFF 		bl	intToStr		@
 760              	.LVL63:
  99:src/util.c    ****     if (afterpoint != 0) {
 761              		.loc 1 99 5 is_stmt 1 view .LVU192
 762              	@ src/util.c:99:     if (afterpoint != 0) {
 763              		.loc 1 99 8 is_stmt 0 view .LVU193
 764 0020 1DB9     		cbnz	r5, .L66	@ afterpoint,
 765              	@ src/util.c:104: }
 100:src/util.c    ****         res[i] = '.';
 101:src/util.c    ****         fpart = fpart * pow(10, afterpoint);
 102:src/util.c    ****         intToStr((int)fpart, res + i + 1, afterpoint);
 103:src/util.c    ****     }
 104:src/util.c    **** }
 766              		.loc 1 104 1 view .LVU194
 767 0022 BDEC028B 		vldm	sp!, {d8}	@
 768              	.LCFI10:
 769              		.cfi_remember_state
 770              		.cfi_restore 80
 771              		.cfi_restore 81
ARM GAS  /tmp/ccEAUEYM.s 			page 18


 772              		.cfi_def_cfa_offset 24
 773              	.LVL64:
 774              		.loc 1 104 1 view .LVU195
 775 0026 BDE87083 		pop	{r4, r5, r6, r8, r9, pc}	@
 776              	.LVL65:
 777              	.L66:
 778              	.LCFI11:
 779              		.cfi_restore_state
 100:src/util.c    ****         res[i] = '.';
 780              		.loc 1 100 9 is_stmt 1 view .LVU196
 781              	@ src/util.c:100:         res[i] = '.';
 100:src/util.c    ****         res[i] = '.';
 782              		.loc 1 100 16 is_stmt 0 view .LVU197
 783 002a 2E23     		movs	r3, #46	@ tmp130,
 784 002c 0646     		mov	r6, r0	@ i, tmp145
 785              	@ src/util.c:101:         fpart = fpart * pow(10, afterpoint);
 101:src/util.c    ****         intToStr((int)fpart, res + i + 1, afterpoint);
 786              		.loc 1 101 25 view .LVU198
 787 002e 2846     		mov	r0, r5	@, afterpoint
 788              	.LVL66:
 789              	@ src/util.c:100:         res[i] = '.';
 100:src/util.c    ****         res[i] = '.';
 790              		.loc 1 100 16 view .LVU199
 791 0030 A355     		strb	r3, [r4, r6]	@ tmp130, *_3
 101:src/util.c    ****         intToStr((int)fpart, res + i + 1, afterpoint);
 792              		.loc 1 101 9 is_stmt 1 view .LVU200
 793              	@ src/util.c:102:         intToStr((int)fpart, res + i + 1, afterpoint);
 102:src/util.c    ****     }
 794              		.loc 1 102 38 is_stmt 0 view .LVU201
 795 0032 0136     		adds	r6, r6, #1	@ tmp138, i,
 796              	.LVL67:
 797              	@ src/util.c:101:         fpart = fpart * pow(10, afterpoint);
 101:src/util.c    ****         intToStr((int)fpart, res + i + 1, afterpoint);
 798              		.loc 1 101 25 view .LVU202
 799 0034 FFF7FEFF 		bl	__aeabi_i2d		@
 800              	.LVL68:
 801              	@ src/util.c:102:         intToStr((int)fpart, res + i + 1, afterpoint);
 102:src/util.c    ****     }
 802              		.loc 1 102 9 view .LVU203
 803 0038 3444     		add	r4, r4, r6	@ tmp139, tmp138
 804              	.LVL69:
 805              	@ src/util.c:101:         fpart = fpart * pow(10, afterpoint);
 101:src/util.c    ****         intToStr((int)fpart, res + i + 1, afterpoint);
 806              		.loc 1 101 25 view .LVU204
 807 003a 41EC110B 		vmov	d1, r0, r1	@, tmp146
 808 003e 9FED120B 		vldr.64	d0, .L67	@,
 809 0042 FFF7FEFF 		bl	pow		@
 810              	.LVL70:
 811              	@ src/util.c:97:     float fpart = n - (float)ipart;
  97:src/util.c    ****     int i = intToStr(ipart, res, 0);
 812              		.loc 1 97 23 view .LVU205
 813 0046 F8EEE88A 		vcvt.f32.s32	s17, s17	@ tmp134, ipart
 814              	.LVL71:
 815              	@ src/util.c:101:         fpart = fpart * pow(10, afterpoint);
 101:src/util.c    ****         intToStr((int)fpart, res + i + 1, afterpoint);
 816              		.loc 1 101 25 view .LVU206
 817 004a 59EC108B 		vmov	r8, r9, d0	@ _6, tmp147
ARM GAS  /tmp/ccEAUEYM.s 			page 19


 818              	@ src/util.c:101:         fpart = fpart * pow(10, afterpoint);
 101:src/util.c    ****         intToStr((int)fpart, res + i + 1, afterpoint);
 819              		.loc 1 101 23 view .LVU207
 820 004e 78EE687A 		vsub.f32	s15, s16, s17	@ tmp150, n, tmp134
 821 0052 17EE900A 		vmov	r0, s15	@, tmp150
 822 0056 FFF7FEFF 		bl	__aeabi_f2d		@
 823              	.LVL72:
 824 005a 4246     		mov	r2, r8	@, _6
 825 005c 4B46     		mov	r3, r9	@, _6
 826 005e FFF7FEFF 		bl	__aeabi_dmul		@
 827              	.LVL73:
 102:src/util.c    ****     }
 828              		.loc 1 102 9 is_stmt 1 view .LVU208
 829              	@ src/util.c:101:         fpart = fpart * pow(10, afterpoint);
 101:src/util.c    ****         intToStr((int)fpart, res + i + 1, afterpoint);
 830              		.loc 1 101 15 is_stmt 0 view .LVU209
 831 0062 FFF7FEFF 		bl	__aeabi_d2f		@
 832              	.LVL74:
 101:src/util.c    ****         intToStr((int)fpart, res + i + 1, afterpoint);
 833              		.loc 1 101 15 view .LVU210
 834 0066 07EE900A 		vmov	s15, r0	@ tmp148,
 835              	@ src/util.c:102:         intToStr((int)fpart, res + i + 1, afterpoint);
 102:src/util.c    ****     }
 836              		.loc 1 102 9 view .LVU211
 837 006a 2A46     		mov	r2, r5	@, afterpoint
 838 006c 2146     		mov	r1, r4	@, tmp139
 839 006e FDEEE77A 		vcvt.s32.f32	s15, s15	@ tmp151, tmp148
 840              	@ src/util.c:104: }
 841              		.loc 1 104 1 view .LVU212
 842 0072 BDEC028B 		vldm	sp!, {d8}	@
 843              	.LCFI12:
 844              		.cfi_restore 80
 845              		.cfi_restore 81
 846              		.cfi_def_cfa_offset 24
 847              	.LVL75:
 848              	@ src/util.c:102:         intToStr((int)fpart, res + i + 1, afterpoint);
 102:src/util.c    ****     }
 849              		.loc 1 102 9 view .LVU213
 850 0076 17EE900A 		vmov	r0, s15	@ int	@, tmp151
 851              	@ src/util.c:104: }
 852              		.loc 1 104 1 view .LVU214
 853 007a BDE87043 		pop	{r4, r5, r6, r8, r9, lr}	@
 854              	.LCFI13:
 855              		.cfi_restore 14
 856              		.cfi_restore 9
 857              		.cfi_restore 8
 858              		.cfi_restore 6
 859              		.cfi_restore 5
 860              		.cfi_restore 4
 861              		.cfi_def_cfa_offset 0
 862              	.LVL76:
 863              	@ src/util.c:102:         intToStr((int)fpart, res + i + 1, afterpoint);
 102:src/util.c    ****     }
 864              		.loc 1 102 9 view .LVU215
 865 007e FFF7FEBF 		b	intToStr		@
 866              	.LVL77:
 867              	.L68:
ARM GAS  /tmp/ccEAUEYM.s 			page 20


 102:src/util.c    ****     }
 868              		.loc 1 102 9 view .LVU216
 869 0082 00BFAFF3 		.align	3
 869      0080
 870              	.L67:
 871 0088 00000000 		.word	0
 872 008c 00002440 		.word	1076101120
 873              		.cfi_endproc
 874              	.LFE5:
 875              		.size	ftoa, .-ftoa
 876              		.section	.text.n_tu,"ax",%progbits
 877              		.align	1
 878              		.p2align 4,,15
 879              		.global	n_tu
 880              		.syntax unified
 881              		.thumb
 882              		.thumb_func
 883              		.type	n_tu, %function
 884              	n_tu:
 885              	.LVL78:
 886              	.LFB6:
 105:src/util.c    **** 
 106:src/util.c    **** 
 107:src/util.c    **** 
 108:src/util.c    **** 
 109:src/util.c    **** 
 110:src/util.c    **** 
 111:src/util.c    **** 
 112:src/util.c    **** 
 113:src/util.c    **** 
 114:src/util.c    **** 
 115:src/util.c    **** int n_tu(int number, int count)
 116:src/util.c    **** {
 887              		.loc 1 116 1 is_stmt 1 view -0
 888              		.cfi_startproc
 889              		@ args = 0, pretend = 0, frame = 0
 890              		@ frame_needed = 0, uses_anonymous_args = 0
 891              		@ link register save eliminated.
 117:src/util.c    ****     int result = 1;
 892              		.loc 1 117 5 view .LVU218
 118:src/util.c    ****     while(count-- > 0)
 893              		.loc 1 118 5 view .LVU219
 894              		.loc 1 118 19 view .LVU220
 895 0000 0029     		cmp	r1, #0	@ count,
 896              	@ src/util.c:116: {
 116:src/util.c    ****     int result = 1;
 897              		.loc 1 116 1 is_stmt 0 view .LVU221
 898 0002 0246     		mov	r2, r0	@ number, tmp119
 899              	@ src/util.c:118:     while(count-- > 0)
 900              		.loc 1 118 16 view .LVU222
 901 0004 01F1FF33 		add	r3, r1, #-1	@ count, count,
 902              	.LVL79:
 903              	@ src/util.c:117:     int result = 1;
 117:src/util.c    ****     int result = 1;
 904              		.loc 1 117 9 view .LVU223
 905 0008 4FF00100 		mov	r0, #1	@ <retval>,
 906              	.LVL80:
ARM GAS  /tmp/ccEAUEYM.s 			page 21


 907              	@ src/util.c:118:     while(count-- > 0)
 908              		.loc 1 118 19 view .LVU224
 909 000c 05DD     		ble	.L72		@,
 910              	.LVL81:
 911              	.L71:
 119:src/util.c    ****         result *= number;
 912              		.loc 1 119 9 is_stmt 1 view .LVU225
 913              	@ src/util.c:118:     while(count-- > 0)
 118:src/util.c    ****     while(count-- > 0)
 914              		.loc 1 118 16 is_stmt 0 view .LVU226
 915 000e 013B     		subs	r3, r3, #1	@ count, count,
 916              	.LVL82:
 917              	@ src/util.c:119:         result *= number;
 918              		.loc 1 119 16 view .LVU227
 919 0010 02FB00F0 		mul	r0, r2, r0	@ <retval>, number, <retval>
 920              	.LVL83:
 118:src/util.c    ****     while(count-- > 0)
 921              		.loc 1 118 19 is_stmt 1 view .LVU228
 118:src/util.c    ****     while(count-- > 0)
 922              		.loc 1 118 19 is_stmt 0 view .LVU229
 923 0014 591C     		adds	r1, r3, #1	@, count,
 924 0016 FAD1     		bne	.L71		@,
 925 0018 7047     		bx	lr	@
 926              	.LVL84:
 927              	.L72:
 120:src/util.c    **** 
 121:src/util.c    ****     return result;
 928              		.loc 1 121 5 is_stmt 1 view .LVU230
 929              	@ src/util.c:122: }
 122:src/util.c    **** }
 930              		.loc 1 122 1 is_stmt 0 view .LVU231
 931 001a 7047     		bx	lr	@
 932              		.cfi_endproc
 933              	.LFE6:
 934              		.size	n_tu, .-n_tu
 935              		.global	__aeabi_f2lz
 936              		.global	__aeabi_l2f
 937              		.section	.text.float_to_string,"ax",%progbits
 938              		.align	1
 939              		.p2align 4,,15
 940              		.global	float_to_string
 941              		.syntax unified
 942              		.thumb
 943              		.thumb_func
 944              		.type	float_to_string, %function
 945              	float_to_string:
 946              	.LVL85:
 947              	.LFB7:
 123:src/util.c    **** 
 124:src/util.c    **** /*** Convert float to string ***/
 125:src/util.c    **** void float_to_string(float f, char r[])
 126:src/util.c    **** {
 948              		.loc 1 126 1 is_stmt 1 view -0
 949              		.cfi_startproc
 950              		@ args = 0, pretend = 0, frame = 16
 951              		@ frame_needed = 0, uses_anonymous_args = 0
 127:src/util.c    ****     long long int length, length2, i, number, position, sign;
ARM GAS  /tmp/ccEAUEYM.s 			page 22


 952              		.loc 1 127 5 view .LVU233
 128:src/util.c    ****     float number2;
 953              		.loc 1 128 5 view .LVU234
 129:src/util.c    **** 
 130:src/util.c    ****     sign = -1;   // -1 == positive number
 954              		.loc 1 130 5 view .LVU235
 131:src/util.c    ****     if (f < 0)
 955              		.loc 1 131 5 view .LVU236
 956              	@ src/util.c:131:     if (f < 0)
 957              		.loc 1 131 8 is_stmt 0 view .LVU237
 958 0000 B5EEC00A 		vcmpe.f32	s0, #0	@ f
 959              	@ src/util.c:126: {
 126:src/util.c    ****     long long int length, length2, i, number, position, sign;
 960              		.loc 1 126 1 view .LVU238
 961 0004 2DE9F04F 		push	{r4, r5, r6, r7, r8, r9, r10, fp, lr}	@
 962              	.LCFI14:
 963              		.cfi_def_cfa_offset 36
 964              		.cfi_offset 4, -36
 965              		.cfi_offset 5, -32
 966              		.cfi_offset 6, -28
 967              		.cfi_offset 7, -24
 968              		.cfi_offset 8, -20
 969              		.cfi_offset 9, -16
 970              		.cfi_offset 10, -12
 971              		.cfi_offset 11, -8
 972              		.cfi_offset 14, -4
 973              	@ src/util.c:131:     if (f < 0)
 974              		.loc 1 131 8 view .LVU239
 975 0008 F1EE10FA 		vmrs	APSR_nzcv, FPSCR
 976              	@ src/util.c:126: {
 126:src/util.c    ****     long long int length, length2, i, number, position, sign;
 977              		.loc 1 126 1 view .LVU240
 978 000c 8246     		mov	r10, r0	@ r, tmp312
 979 000e 2DED048B 		vpush.64	{d8, d9}	@
 980              	.LCFI15:
 981              		.cfi_def_cfa_offset 52
 982              		.cfi_offset 80, -52
 983              		.cfi_offset 81, -48
 984              		.cfi_offset 82, -44
 985              		.cfi_offset 83, -40
 986 0012 F0EE408A 		vmov.f32	s17, s0	@ f, tmp311
 987 0016 85B0     		sub	sp, sp, #20	@,,
 988              	.LCFI16:
 989              		.cfi_def_cfa_offset 72
 990              	@ src/util.c:131:     if (f < 0)
 991              		.loc 1 131 8 view .LVU241
 992 0018 00F1FC80 		bmi	.L112		@,
 993              	@ src/util.c:130:     sign = -1;   // -1 == positive number
 130:src/util.c    ****     if (f < 0)
 994              		.loc 1 130 10 view .LVU242
 995 001c 4FF0FF38 		mov	r8, #-1	@ sign,
 996 0020 CDF80880 		str	r8, [sp, #8]	@ sign, %sfp
 997              	.LVL86:
 998              	.L75:
 132:src/util.c    ****     {
 133:src/util.c    ****         sign = '-';
 134:src/util.c    ****         f *= -1;
ARM GAS  /tmp/ccEAUEYM.s 			page 23


 135:src/util.c    ****     }
 136:src/util.c    **** 
 137:src/util.c    ****     number2 = f;
 999              		.loc 1 137 5 is_stmt 1 view .LVU243
 138:src/util.c    ****     number = f;
 1000              		.loc 1 138 5 view .LVU244
 1001              	@ src/util.c:138:     number = f;
 1002              		.loc 1 138 12 is_stmt 0 view .LVU245
 1003 0024 18EE900A 		vmov	r0, s17	@, f
 1004              	.LVL87:
 1005              		.loc 1 138 12 view .LVU246
 1006 0028 FFF7FEFF 		bl	__aeabi_f2lz		@
 1007              	.LVL88:
 1008 002c 0546     		mov	r5, r0	@ number, tmp318
 1009 002e 0C46     		mov	r4, r1	@ number, tmp319
 1010              	.LVL89:
 139:src/util.c    ****     length = 0;  // Size of decimal part
 1011              		.loc 1 139 5 is_stmt 1 view .LVU247
 140:src/util.c    ****     length2 = 0; // Size of tenth
 1012              		.loc 1 140 5 view .LVU248
 141:src/util.c    **** 
 142:src/util.c    ****     /* Calculate length2 tenth part */
 143:src/util.c    ****     while( (number2 - (float)number) != 0.0 && !((number2 - (float)number) < 0.0) )
 1013              		.loc 1 143 5 view .LVU249
 1014              		.loc 1 143 45 view .LVU250
 1015              	@ src/util.c:143:     while( (number2 - (float)number) != 0.0 && !((number2 - (float)number) < 0.0)
 1016              		.loc 1 143 23 is_stmt 0 view .LVU251
 1017 0030 FFF7FEFF 		bl	__aeabi_l2f		@
 1018              	.LVL90:
 1019              		.loc 1 143 23 view .LVU252
 1020 0034 09EE100A 		vmov	s18, r0	@ tmp314,
 1021              	@ src/util.c:143:     while( (number2 - (float)number) != 0.0 && !((number2 - (float)number) < 0.0)
 1022              		.loc 1 143 21 view .LVU253
 1023 0038 38EEC99A 		vsub.f32	s18, s17, s18	@ _71, f, tmp314
 1024              	@ src/util.c:143:     while( (number2 - (float)number) != 0.0 && !((number2 - (float)number) < 0.0)
 1025              		.loc 1 143 45 view .LVU254
 1026 003c B5EE409A 		vcmp.f32	s18, #0	@ _71
 1027 0040 F1EE10FA 		vmrs	APSR_nzcv, FPSCR
 1028 0044 00F0ED80 		beq	.L96		@,
 1029              		.loc 1 143 45 view .LVU255
 1030 0048 B5EEC09A 		vcmpe.f32	s18, #0	@ _71
 1031              	@ src/util.c:140:     length2 = 0; // Size of tenth
 140:src/util.c    ****     length2 = 0; // Size of tenth
 1032              		.loc 1 140 13 view .LVU256
 1033 004c 4FF00009 		mov	r9, #0	@ length2,
 1034 0050 4F46     		mov	r7, r9	@ length2, length2
 1035              	@ src/util.c:143:     while( (number2 - (float)number) != 0.0 && !((number2 - (float)number) < 0.0)
 1036              		.loc 1 143 45 view .LVU257
 1037 0052 F1EE10FA 		vmrs	APSR_nzcv, FPSCR
 1038 0056 32D4     		bmi	.L77		@,
 1039              	.LVL91:
 1040              	.L80:
 144:src/util.c    ****     {
 145:src/util.c    ****          number2 = f * (n_tu(10.0, length2 + 1));
 1041              		.loc 1 145 10 is_stmt 1 view .LVU258
 1042              	.LBB16:
 1043              	.LBI16:
ARM GAS  /tmp/ccEAUEYM.s 			page 24


 115:src/util.c    **** {
 1044              		.loc 1 115 5 view .LVU259
 1045              	.LBB17:
 117:src/util.c    ****     while(count-- > 0)
 1046              		.loc 1 117 5 view .LVU260
 118:src/util.c    ****         result *= number;
 1047              		.loc 1 118 5 view .LVU261
 118:src/util.c    ****         result *= number;
 1048              		.loc 1 118 19 view .LVU262
 1049              	.LBE17:
 1050              	.LBE16:
 1051              	@ src/util.c:148:          length2++;
 146:src/util.c    ****          number = number2;
 147:src/util.c    **** 
 148:src/util.c    ****          length2++;
 1052              		.loc 1 148 17 is_stmt 0 view .LVU263
 1053 0058 19F10103 		adds	r3, r9, #1	@ tmp265, length2,
 1054              	.LVL92:
 1055              	.LBB20:
 1056              	.LBB18:
 1057              	@ src/util.c:118:     while(count-- > 0)
 118:src/util.c    ****         result *= number;
 1058              		.loc 1 118 16 view .LVU264
 1059 005c 4A46     		mov	r2, r9	@ count, length2
 1060              	.LVL93:
 118:src/util.c    ****         result *= number;
 1061              		.loc 1 118 16 view .LVU265
 1062              	.LBE18:
 1063              	.LBE20:
 1064              	@ src/util.c:148:          length2++;
 1065              		.loc 1 148 17 view .LVU266
 1066 005e 47F10007 		adc	r7, r7, #0	@ length2, length2
 1067              	.LVL94:
 1068              	.LBB21:
 1069              	.LBB19:
 1070              	@ src/util.c:118:     while(count-- > 0)
 118:src/util.c    ****         result *= number;
 1071              		.loc 1 118 19 view .LVU267
 1072 0062 B3F10009 		subs	r9, r3, #0	@ length2, tmp265
 1073              	.LVL95:
 118:src/util.c    ****         result *= number;
 1074              		.loc 1 118 19 view .LVU268
 1075 0066 40F3D080 		ble	.L98		@,
 1076              	@ src/util.c:117:     int result = 1;
 117:src/util.c    ****     while(count-- > 0)
 1077              		.loc 1 117 9 view .LVU269
 1078 006a 0123     		movs	r3, #1	@ result,
 1079              	.LVL96:
 1080              	.L79:
 119:src/util.c    **** 
 1081              		.loc 1 119 9 is_stmt 1 view .LVU270
 1082              	@ src/util.c:118:     while(count-- > 0)
 118:src/util.c    ****         result *= number;
 1083              		.loc 1 118 16 is_stmt 0 view .LVU271
 1084 006c 013A     		subs	r2, r2, #1	@ count, count,
 1085              	.LVL97:
 1086              	@ src/util.c:119:         result *= number;
ARM GAS  /tmp/ccEAUEYM.s 			page 25


 119:src/util.c    **** 
 1087              		.loc 1 119 16 view .LVU272
 1088 006e 03EB8303 		add	r3, r3, r3, lsl #2	@ tmp155, result, result,
 1089              	.LVL98:
 1090              	@ src/util.c:118:     while(count-- > 0)
 118:src/util.c    ****         result *= number;
 1091              		.loc 1 118 19 view .LVU273
 1092 0072 511C     		adds	r1, r2, #1	@, count,
 1093              	.LVL99:
 1094              	@ src/util.c:119:         result *= number;
 119:src/util.c    **** 
 1095              		.loc 1 119 16 view .LVU274
 1096 0074 4FEA4303 		lsl	r3, r3, #1	@ result, tmp155,
 1097              	.LVL100:
 118:src/util.c    ****         result *= number;
 1098              		.loc 1 118 19 is_stmt 1 view .LVU275
 118:src/util.c    ****         result *= number;
 1099              		.loc 1 118 19 is_stmt 0 view .LVU276
 1100 0078 F8D1     		bne	.L79		@,
 121:src/util.c    **** }
 1101              		.loc 1 121 5 is_stmt 1 view .LVU277
 1102              	.LVL101:
 121:src/util.c    **** }
 1103              		.loc 1 121 5 is_stmt 0 view .LVU278
 1104              	.LBE19:
 1105              	.LBE21:
 1106              	@ src/util.c:145:          number2 = f * (n_tu(10.0, length2 + 1));
 145:src/util.c    ****          number = number2;
 1107              		.loc 1 145 22 view .LVU279
 1108 007a 07EE903A 		vmov	s15, r3	@ int	@ result, result
 1109 007e B8EEE78A 		vcvt.f32.s32	s16, s15	@ tmp157, result
 1110              	@ src/util.c:145:          number2 = f * (n_tu(10.0, length2 + 1));
 145:src/util.c    ****          number = number2;
 1111              		.loc 1 145 18 view .LVU280
 1112 0082 28EE288A 		vmul.f32	s16, s16, s17	@ number2, tmp157, f
 1113              	.LVL102:
 146:src/util.c    **** 
 1114              		.loc 1 146 10 is_stmt 1 view .LVU281
 1115              	@ src/util.c:146:          number = number2;
 146:src/util.c    **** 
 1116              		.loc 1 146 17 is_stmt 0 view .LVU282
 1117 0086 18EE100A 		vmov	r0, s16	@, number2
 1118 008a FFF7FEFF 		bl	__aeabi_f2lz		@
 1119              	.LVL103:
 146:src/util.c    **** 
 1120              		.loc 1 146 17 view .LVU283
 1121 008e 0546     		mov	r5, r0	@ number, tmp320
 1122              	.LVL104:
 146:src/util.c    **** 
 1123              		.loc 1 146 17 view .LVU284
 1124 0090 0C46     		mov	r4, r1	@ number, tmp321
 1125              		.loc 1 148 10 is_stmt 1 view .LVU285
 143:src/util.c    ****     {
 1126              		.loc 1 143 45 view .LVU286
 1127              	@ src/util.c:143:     while( (number2 - (float)number) != 0.0 && !((number2 - (float)number) < 0.0)
 143:src/util.c    ****     {
 1128              		.loc 1 143 23 is_stmt 0 view .LVU287
ARM GAS  /tmp/ccEAUEYM.s 			page 26


 1129 0092 FFF7FEFF 		bl	__aeabi_l2f		@
 1130              	.LVL105:
 143:src/util.c    ****     {
 1131              		.loc 1 143 23 view .LVU288
 1132 0096 07EE900A 		vmov	s15, r0	@ tmp316,
 1133              	@ src/util.c:143:     while( (number2 - (float)number) != 0.0 && !((number2 - (float)number) < 0.0)
 143:src/util.c    ****     {
 1134              		.loc 1 143 21 view .LVU289
 1135 009a 78EE677A 		vsub.f32	s15, s16, s15	@ _6, number2, tmp316
 1136              	@ src/util.c:143:     while( (number2 - (float)number) != 0.0 && !((number2 - (float)number) < 0.0)
 143:src/util.c    ****     {
 1137              		.loc 1 143 45 view .LVU290
 1138 009e F5EE407A 		vcmp.f32	s15, #0	@ _6
 1139 00a2 F1EE10FA 		vmrs	APSR_nzcv, FPSCR
 1140 00a6 0AD0     		beq	.L77		@,
 1141              	.LVL106:
 1142              	.L78:
 1143              	@ src/util.c:143:     while( (number2 - (float)number) != 0.0 && !((number2 - (float)number) < 0.0)
 143:src/util.c    ****     {
 1144              		.loc 1 143 45 discriminator 1 view .LVU291
 1145 00a8 F5EEC07A 		vcmpe.f32	s15, #0	@ _6
 1146 00ac F1EE10FA 		vmrs	APSR_nzcv, FPSCR
 1147 00b0 D2D5     		bpl	.L80		@,
 1148              	@ src/util.c:157:     number = number2;
 149:src/util.c    ****     }
 150:src/util.c    **** 
 151:src/util.c    ****     /* Calculate length decimal part */
 152:src/util.c    ****     for (length = (f > 1) ? 0 : 1; f > 1; length++)
 153:src/util.c    ****         f /= 10;
 154:src/util.c    **** 
 155:src/util.c    ****     position = length;
 156:src/util.c    ****     length = length + 1 + length2;
 157:src/util.c    ****     number = number2;
 1149              		.loc 1 157 12 view .LVU292
 1150 00b2 18EE100A 		vmov	r0, s16	@, number2
 1151 00b6 FFF7FEFF 		bl	__aeabi_f2lz		@
 1152              	.LVL107:
 1153 00ba 0546     		mov	r5, r0	@ number, tmp322
 1154 00bc 0C46     		mov	r4, r1	@ number, tmp323
 1155              	.LVL108:
 1156              	.L77:
 152:src/util.c    ****         f /= 10;
 1157              		.loc 1 152 5 is_stmt 1 view .LVU293
 1158              	@ src/util.c:152:     for (length = (f > 1) ? 0 : 1; f > 1; length++)
 152:src/util.c    ****         f /= 10;
 1159              		.loc 1 152 22 is_stmt 0 view .LVU294
 1160 00be F7EE007A 		vmov.f32	s15, #1.0e+0	@ tmp164,
 1161              	@ src/util.c:152:     for (length = (f > 1) ? 0 : 1; f > 1; length++)
 152:src/util.c    ****         f /= 10;
 1162              		.loc 1 152 17 view .LVU295
 1163 00c2 0026     		movs	r6, #0	@ position,
 1164              	@ src/util.c:152:     for (length = (f > 1) ? 0 : 1; f > 1; length++)
 152:src/util.c    ****         f /= 10;
 1165              		.loc 1 152 22 view .LVU296
 1166 00c4 F4EEE78A 		vcmpe.f32	s17, s15	@ f, tmp164
 1167 00c8 F1EE10FA 		vmrs	APSR_nzcv, FPSCR
 1168              	@ src/util.c:152:     for (length = (f > 1) ? 0 : 1; f > 1; length++)
ARM GAS  /tmp/ccEAUEYM.s 			page 27


 152:src/util.c    ****         f /= 10;
 1169              		.loc 1 152 17 view .LVU297
 1170 00cc D4BF     		ite	le
 1171 00ce 0122     		movle	r2, #1	@ position,
 1172 00d0 3246     		movgt	r2, r6	@ position,
 1173              	.LVL109:
 152:src/util.c    ****         f /= 10;
 1174              		.loc 1 152 38 is_stmt 1 view .LVU298
 1175 00d2 0BDD     		ble	.L82		@,
 1176              	@ src/util.c:153:         f /= 10;
 153:src/util.c    **** 
 1177              		.loc 1 153 11 is_stmt 0 view .LVU299
 1178 00d4 B2EE047A 		vmov.f32	s14, #1.0e+1	@ tmp170,
 1179              	.LVL110:
 1180              	.L84:
 153:src/util.c    **** 
 1181              		.loc 1 153 9 is_stmt 1 discriminator 3 view .LVU300
 1182              	@ src/util.c:153:         f /= 10;
 153:src/util.c    **** 
 1183              		.loc 1 153 11 is_stmt 0 discriminator 3 view .LVU301
 1184 00d8 C8EE878A 		vdiv.f32	s17, s17, s14	@ f, f, tmp170
 1185              	.LVL111:
 152:src/util.c    ****         f /= 10;
 1186              		.loc 1 152 49 is_stmt 1 discriminator 3 view .LVU302
 1187 00dc 0132     		adds	r2, r2, #1	@ tmp267, position,
 1188              	.LVL112:
 152:src/util.c    ****         f /= 10;
 1189              		.loc 1 152 49 is_stmt 0 discriminator 3 view .LVU303
 1190 00de 46F10006 		adc	r6, r6, #0	@ position, position
 1191              	.LVL113:
 152:src/util.c    ****         f /= 10;
 1192              		.loc 1 152 38 is_stmt 1 discriminator 3 view .LVU304
 1193 00e2 F4EEE78A 		vcmpe.f32	s17, s15	@ f, tmp164
 1194 00e6 F1EE10FA 		vmrs	APSR_nzcv, FPSCR
 1195 00ea F5DC     		bgt	.L84		@,
 1196              	.LVL114:
 1197              	.L82:
 155:src/util.c    ****     length = length + 1 + length2;
 1198              		.loc 1 155 5 view .LVU305
 156:src/util.c    ****     number = number2;
 1199              		.loc 1 156 5 view .LVU306
 1200              	@ src/util.c:156:     length = length + 1 + length2;
 156:src/util.c    ****     number = number2;
 1201              		.loc 1 156 21 is_stmt 0 view .LVU307
 1202 00ec 12F1010C 		adds	ip, r2, #1	@ _12, position,
 1203              	@ src/util.c:158:     if (sign == '-')
 158:src/util.c    ****     if (sign == '-')
 1204              		.loc 1 158 8 view .LVU308
 1205 00f0 A8F12D03 		sub	r3, r8, #45	@ tmp301, sign,
 1206              	@ src/util.c:156:     length = length + 1 + length2;
 156:src/util.c    ****     number = number2;
 1207              		.loc 1 156 21 view .LVU309
 1208 00f4 46F10000 		adc	r0, r6, #0	@ _12, position
 1209              	@ src/util.c:156:     length = length + 1 + length2;
 156:src/util.c    ****     number = number2;
 1210              		.loc 1 156 12 view .LVU310
 1211 00f8 1CEB0901 		adds	r1, ip, r9	@ length, _12, length2
ARM GAS  /tmp/ccEAUEYM.s 			page 28


 1212              	@ src/util.c:158:     if (sign == '-')
 1213              		.loc 1 158 8 view .LVU311
 1214 00fc 0393     		str	r3, [sp, #12]	@ tmp301, %sfp
 1215              	@ src/util.c:156:     length = length + 1 + length2;
 156:src/util.c    ****     number = number2;
 1216              		.loc 1 156 12 view .LVU312
 1217 00fe 40EB070E 		adc	lr, r0, r7	@ length, _12, length2
 1218              	.LVL115:
 157:src/util.c    ****     if (sign == '-')
 1219              		.loc 1 157 5 is_stmt 1 view .LVU313
 1220              		.loc 1 158 5 view .LVU314
 1221              	@ src/util.c:158:     if (sign == '-')
 1222              		.loc 1 158 8 is_stmt 0 view .LVU315
 1223 0102 1F46     		mov	r7, r3	@ tmp301, tmp301
 1224 0104 029B     		ldr	r3, [sp, #8]	@ sign, %sfp
 1225 0106 1F43     		orrs	r7, r7, r3	@ tmp330, tmp301, sign
 1226 0108 04D1     		bne	.L85		@,
 159:src/util.c    ****     {
 160:src/util.c    ****         length++;
 1227              		.loc 1 160 9 is_stmt 1 view .LVU316
 1228              	@ src/util.c:160:         length++;
 1229              		.loc 1 160 15 is_stmt 0 view .LVU317
 1230 010a 0131     		adds	r1, r1, #1	@ tmp269, length,
 1231              	.LVL116:
 1232              	@ src/util.c:161:         position++;
 161:src/util.c    ****         position++;
 1233              		.loc 1 161 17 view .LVU318
 1234 010c 6246     		mov	r2, ip	@ position, _12
 1235              	.LVL117:
 1236              		.loc 1 161 17 view .LVU319
 1237 010e 0646     		mov	r6, r0	@ position, _12
 1238              	.LVL118:
 1239              	@ src/util.c:160:         length++;
 160:src/util.c    ****         position++;
 1240              		.loc 1 160 15 view .LVU320
 1241 0110 4EF1000E 		adc	lr, lr, #0	@ length, length
 1242              	.LVL119:
 1243              		.loc 1 161 9 is_stmt 1 view .LVU321
 1244              	.L85:
 162:src/util.c    ****     }
 163:src/util.c    **** 
 164:src/util.c    ****     for (i = length; i >= 0 ; i--)
 1245              		.loc 1 164 5 view .LVU322
 1246              		.loc 1 164 24 view .LVU323
 1247 0114 0AEB0107 		add	r7, r10, r1	@ ivtmp.135, r, length
 1248              	@ src/util.c:164:     for (i = length; i >= 0 ; i--)
 1249              		.loc 1 164 12 is_stmt 0 view .LVU324
 1250 0118 0B46     		mov	r3, r1	@ i, length
 1251 011a F446     		mov	ip, lr	@ i, length
 1252 011c DFF80C91 		ldr	r9, .L115	@ tmp302,
 1253              	@ src/util.c:167:             r[i] = '\0';
 165:src/util.c    ****     {
 166:src/util.c    ****         if (i == (length))
 167:src/util.c    ****             r[i] = '\0';
 1254              		.loc 1 167 18 view .LVU325
 1255 0120 D346     		mov	fp, r10	@ r, r
 1256 0122 0192     		str	r2, [sp, #4]	@ position, %sfp
ARM GAS  /tmp/ccEAUEYM.s 			page 29


 1257              	.LVL120:
 1258              	.L94:
 166:src/util.c    ****             r[i] = '\0';
 1259              		.loc 1 166 9 is_stmt 1 view .LVU326
 1260              	@ src/util.c:166:         if (i == (length))
 166:src/util.c    ****             r[i] = '\0';
 1261              		.loc 1 166 12 is_stmt 0 view .LVU327
 1262 0124 E645     		cmp	lr, ip	@ length, i
 1263 0126 08BF     		it	eq		@
 1264 0128 9942     		cmpeq	r1, r3	@, length, i
 1265 012a 62D0     		beq	.L113		@,
 1266              	.LVL121:
 1267              	.L86:
 168:src/util.c    ****         else if(i == (position))
 1268              		.loc 1 168 14 is_stmt 1 view .LVU328
 1269              	@ src/util.c:168:         else if(i == (position))
 1270              		.loc 1 168 16 is_stmt 0 view .LVU329
 1271 012c 019A     		ldr	r2, [sp, #4]	@ position, %sfp
 1272 012e 6645     		cmp	r6, ip	@ position, i
 1273 0130 08BF     		it	eq		@
 1274 0132 9A42     		cmpeq	r2, r3	@, position, i
 1275 0134 65D0     		beq	.L114		@,
 169:src/util.c    ****             r[i] = '.';
 170:src/util.c    ****         else if(sign == '-' && i == 0)
 1276              		.loc 1 170 14 is_stmt 1 view .LVU330
 1277              	@ src/util.c:170:         else if(sign == '-' && i == 0)
 1278              		.loc 1 170 16 is_stmt 0 view .LVU331
 1279 0136 DDE90220 		ldrd	r2, r0, [sp, #8]	@ sign, tmp301,,
 1280 013a 1043     		orrs	r0, r0, r2	@ tmp331, tmp301, sign
 1281 013c 0AD1     		bne	.L90		@,
 1282 013e 53EA0C00 		orrs	r0, r3, ip	@ tmp332, i, i
 1283 0142 07D1     		bne	.L90		@,
 171:src/util.c    ****             r[i] = '-';
 1284              		.loc 1 171 13 is_stmt 1 view .LVU332
 1285              	@ src/util.c:171:             r[i] = '-';
 1286              		.loc 1 171 18 is_stmt 0 view .LVU333
 1287 0144 2D23     		movs	r3, #45	@ tmp189,
 1288 0146 8BF80030 		strb	r3, [fp]	@ tmp189, *r_55(D)
 1289              	.LVL122:
 164:src/util.c    ****     {
 1290              		.loc 1 164 32 is_stmt 1 view .LVU334
 164:src/util.c    ****     {
 1291              		.loc 1 164 24 view .LVU335
 1292              	.L74:
 1293              	@ src/util.c:178: }
 172:src/util.c    ****         else
 173:src/util.c    ****         {
 174:src/util.c    ****             r[i] = (number % 10) + '0';
 175:src/util.c    ****             number /=10;
 176:src/util.c    ****         }
 177:src/util.c    ****     }
 178:src/util.c    **** }
 1294              		.loc 1 178 1 is_stmt 0 view .LVU336
 1295 014a 05B0     		add	sp, sp, #20	@,,
 1296              	.LCFI17:
 1297              		.cfi_remember_state
 1298              		.cfi_def_cfa_offset 52
ARM GAS  /tmp/ccEAUEYM.s 			page 30


 1299              		@ sp needed	@
 1300 014c BDEC048B 		vldm	sp!, {d8-d9}	@,
 1301              	.LCFI18:
 1302              		.cfi_restore 82
 1303              		.cfi_restore 83
 1304              		.cfi_restore 80
 1305              		.cfi_restore 81
 1306              		.cfi_def_cfa_offset 36
 1307 0150 BDE8F08F 		pop	{r4, r5, r6, r7, r8, r9, r10, fp, pc}	@
 1308              	.LVL123:
 1309              	.L90:
 1310              	.LCFI19:
 1311              		.cfi_restore_state
 174:src/util.c    ****             number /=10;
 1312              		.loc 1 174 13 is_stmt 1 view .LVU337
 1313 0154 280F     		lsrs	r0, r5, #28	@ tmp273, number,
 1314 0156 40EA0410 		orr	r0, r0, r4, lsl #4	@ tmp273, tmp273, number,
 1315 015a 20F07048 		bic	r8, r0, #-268435456	@ tmp197, tmp273,
 1316 015e 25F07040 		bic	r0, r5, #-268435456	@ tmp193, number,
 1317 0162 4044     		add	r0, r0, r8	@ tmp198, tmp197
 1318 0164 4FEAE478 		asr	r8, r4, #31	@ tmp191, number,
 1319 0168 00EB1460 		add	r0, r0, r4, lsr #24	@ tmp202, tmp198, number,
 1320 016c 08F0030A 		and	r10, r8, #3	@ tmp192, tmp191,
 1321 0170 28F00302 		bic	r2, r8, #3	@ tmp211, tmp191,
 1322 0174 5044     		add	r0, r0, r10	@ tmp203, tmp192
 1323 0176 A9FB00A8 		umull	r10, r8, r9, r0	@ tmp333, tmp205, tmp302, tmp203
 1324 017a 28F0030A 		bic	r10, r8, #3	@ tmp208, tmp205,
 1325 017e 0AEB980A 		add	r10, r10, r8, lsr #2	@ tmp209, tmp208, tmp205,
 1326 0182 A0EB0A00 		sub	r0, r0, r10	@ tmp210, tmp203, tmp209
 1327 0186 1044     		add	r0, r0, r2	@ tmp212, tmp211
 1328 0188 4FF0CC32 		mov	r2, #-858993460	@ tmp373,
 1329 018c B5EB0008 		subs	r8, r5, r0	@ tmp279, number, tmp212
 1330 0190 64EBE074 		sbc	r4, r4, r0, asr #31	@ tmp280, number, tmp212,
 1331 0194 02FB08FA 		mul	r10, r2, r8	@ tmp218, tmp373, tmp279
 1332 0198 A8FB0958 		umull	r5, r8, r8, r9	@ tmp281, tmp282, tmp279, tmp302
 1333 019c 09FB04AA 		mla	r10, r9, r4, r10	@ tmp220, tmp302, tmp280, tmp218
 1334 01a0 05F00104 		and	r4, r5, #1	@ tmp283, tmp281,
 1335 01a4 1AEB0808 		adds	r8, r10, r8	@ tmp282, tmp220, tmp282
 1336 01a8 03D5     		bpl	.L92		@,
 1337 01aa 013C     		subs	r4, r4, #1	@ tmp285, tmp283,
 1338 01ac 64F00104 		orn	r4, r4, #1	@ tmp283, tmp285,
 1339 01b0 0134     		adds	r4, r4, #1	@ tmp283, tmp283,
 1340              	.L92:
 1341 01b2 0522     		movs	r2, #5	@ tmp374,
 1342 01b4 A4FB024A 		umull	r4, r10, r4, r2	@ tmp289, tmp290, tmp283, tmp374
 1343 01b8 2418     		adds	r4, r4, r0	@ tmp291, tmp289, tmp212
 1344 01ba B8F1000F 		cmp	r8, #0	@ tmp294
 1345 01be 02DA     		bge	.L93		@,
 1346 01c0 0135     		adds	r5, r5, #1	@ tmp295, tmp293,
 1347 01c2 48F10008 		adc	r8, r8, #0	@ tmp294, tmp294
 1348              	.L93:
 1349              	@ src/util.c:174:             r[i] = (number % 10) + '0';
 174:src/util.c    ****             number /=10;
 1350              		.loc 1 174 34 is_stmt 0 view .LVU338
 1351 01c6 3034     		adds	r4, r4, #48	@ tmp244, tmp291,
 1352 01c8 6D08     		lsrs	r5, r5, #1	@ tmp297, tmp293,
 1353              	@ src/util.c:174:             r[i] = (number % 10) + '0';
ARM GAS  /tmp/ccEAUEYM.s 			page 31


 174:src/util.c    ****             number /=10;
 1354              		.loc 1 174 18 view .LVU339
 1355 01ca 3C70     		strb	r4, [r7]	@ tmp244, MEM[(char *)_72]
 175:src/util.c    ****         }
 1356              		.loc 1 175 13 is_stmt 1 view .LVU340
 1357              	@ src/util.c:175:             number /=10;
 175:src/util.c    ****         }
 1358              		.loc 1 175 20 is_stmt 0 view .LVU341
 1359 01cc 45EAC875 		orr	r5, r5, r8, lsl #31	@ number, tmp297, tmp294,
 1360 01d0 4FEA6804 		asr	r4, r8, #1	@ number, tmp294,
 1361              	.LVL124:
 1362              	.L89:
 164:src/util.c    ****     {
 1363              		.loc 1 164 32 is_stmt 1 discriminator 2 view .LVU342
 1364 01d4 013B     		subs	r3, r3, #1	@ tmp299, i,
 1365              	@ src/util.c:164:     for (i = length; i >= 0 ; i--)
 164:src/util.c    ****     {
 1366              		.loc 1 164 24 is_stmt 0 discriminator 2 view .LVU343
 1367 01d6 07F1FF37 		add	r7, r7, #-1	@ ivtmp.135, ivtmp.135,
 1368              	@ src/util.c:164:     for (i = length; i >= 0 ; i--)
 164:src/util.c    ****     {
 1369              		.loc 1 164 32 discriminator 2 view .LVU344
 1370 01da 6CF1000C 		sbc	ip, ip, #0	@ i, i
 1371              	.LVL125:
 164:src/util.c    ****     {
 1372              		.loc 1 164 24 is_stmt 1 discriminator 2 view .LVU345
 1373 01de BCF1FF3F 		cmp	ip, #-1	@ i,
 1374 01e2 08BF     		it	eq		@
 1375 01e4 B3F1FF3F 		cmpeq	r3, #-1	@, i,
 1376 01e8 AFD0     		beq	.L74		@,
 166:src/util.c    ****             r[i] = '\0';
 1377              		.loc 1 166 9 view .LVU346
 1378              	@ src/util.c:166:         if (i == (length))
 166:src/util.c    ****             r[i] = '\0';
 1379              		.loc 1 166 12 is_stmt 0 view .LVU347
 1380 01ea E645     		cmp	lr, ip	@ length, i
 1381 01ec 08BF     		it	eq		@
 1382 01ee 9942     		cmpeq	r1, r3	@, length, i
 1383 01f0 9CD1     		bne	.L86		@,
 1384              	.LVL126:
 1385              	.L113:
 167:src/util.c    ****         else if(i == (position))
 1386              		.loc 1 167 13 is_stmt 1 view .LVU348
 1387              	@ src/util.c:164:     for (i = length; i >= 0 ; i--)
 164:src/util.c    ****     {
 1388              		.loc 1 164 32 is_stmt 0 view .LVU349
 1389 01f2 013B     		subs	r3, r3, #1	@ tmp271, i,
 1390              	.LVL127:
 1391              	@ src/util.c:167:             r[i] = '\0';
 167:src/util.c    ****         else if(i == (position))
 1392              		.loc 1 167 18 view .LVU350
 1393 01f4 4FF00002 		mov	r2, #0	@ tmp366,
 1394              	@ src/util.c:164:     for (i = length; i >= 0 ; i--)
 164:src/util.c    ****     {
 1395              		.loc 1 164 32 view .LVU351
 1396 01f8 6CF1000C 		sbc	ip, ip, #0	@ i, i
 1397              	.LVL128:
ARM GAS  /tmp/ccEAUEYM.s 			page 32


 1398              	@ src/util.c:167:             r[i] = '\0';
 167:src/util.c    ****         else if(i == (position))
 1399              		.loc 1 167 18 view .LVU352
 1400 01fc 07F80129 		strb	r2, [r7], #-1	@ tmp366, MEM[(char *)_94]
 164:src/util.c    ****     {
 1401              		.loc 1 164 32 is_stmt 1 view .LVU353
 164:src/util.c    ****     {
 1402              		.loc 1 164 24 view .LVU354
 1403 0200 90E7     		b	.L94		@
 1404              	.LVL129:
 1405              	.L114:
 169:src/util.c    ****         else if(sign == '-' && i == 0)
 1406              		.loc 1 169 13 view .LVU355
 1407              	@ src/util.c:169:             r[i] = '.';
 169:src/util.c    ****         else if(sign == '-' && i == 0)
 1408              		.loc 1 169 18 is_stmt 0 view .LVU356
 1409 0202 4FF02E02 		mov	r2, #46	@ tmp367,
 1410 0206 3A70     		strb	r2, [r7]	@ tmp367, MEM[(char *)_69]
 1411 0208 E4E7     		b	.L89		@
 1412              	.LVL130:
 1413              	.L98:
 1414              	@ src/util.c:145:          number2 = f * (n_tu(10.0, length2 + 1));
 145:src/util.c    ****          number = number2;
 1415              		.loc 1 145 18 view .LVU357
 1416 020a B0EE688A 		vmov.f32	s16, s17	@ number2, f
 1417              	@ src/util.c:143:     while( (number2 - (float)number) != 0.0 && !((number2 - (float)number) < 0.0)
 143:src/util.c    ****     {
 1418              		.loc 1 143 21 view .LVU358
 1419 020e F0EE497A 		vmov.f32	s15, s18	@ _6, _71
 1420 0212 49E7     		b	.L78		@
 1421              	.LVL131:
 1422              	.L112:
 133:src/util.c    ****         f *= -1;
 1423              		.loc 1 133 9 is_stmt 1 view .LVU359
 134:src/util.c    ****     }
 1424              		.loc 1 134 9 view .LVU360
 1425              	@ src/util.c:133:         sign = '-';
 133:src/util.c    ****         f *= -1;
 1426              		.loc 1 133 14 is_stmt 0 view .LVU361
 1427 0214 0023     		movs	r3, #0	@ sign,
 1428              	@ src/util.c:134:         f *= -1;
 134:src/util.c    ****     }
 1429              		.loc 1 134 11 view .LVU362
 1430 0216 F1EE408A 		vneg.f32	s17, s0	@ f, f
 1431              	.LVL132:
 1432              	@ src/util.c:133:         sign = '-';
 133:src/util.c    ****         f *= -1;
 1433              		.loc 1 133 14 view .LVU363
 1434 021a 4FF02D08 		mov	r8, #45	@ sign,
 1435 021e 0293     		str	r3, [sp, #8]	@ sign, %sfp
 1436 0220 00E7     		b	.L75		@
 1437              	.LVL133:
 1438              	.L96:
 1439              	@ src/util.c:140:     length2 = 0; // Size of tenth
 140:src/util.c    **** 
 1440              		.loc 1 140 13 view .LVU364
 1441 0222 4FF00009 		mov	r9, #0	@ length2,
ARM GAS  /tmp/ccEAUEYM.s 			page 33


 1442 0226 4F46     		mov	r7, r9	@ length2, length2
 1443 0228 49E7     		b	.L77		@
 1444              	.L116:
 1445 022a 00BF     		.align	2
 1446              	.L115:
 1447 022c CDCCCCCC 		.word	-858993459
 1448              		.cfi_endproc
 1449              	.LFE7:
 1450              		.size	float_to_string, .-float_to_string
 1451              		.text
 1452              	.Letext0:
 1453              		.file 2 "/usr/arm-none-eabi/include/math.h"
 1454              		.file 3 "<built-in>"